00000000  55                push ebp
00000001  89E5              mov ebp,esp
00000003  83EC28            sub esp,byte +0x28
00000006  C7042400200000    mov dword [esp],0x2000
0000000D  E8FC030000        call dword 0x40e
00000012  C7042414200000    mov dword [esp],0x2014
00000019  E8F0030000        call dword 0x40e
0000001E  C7042453200000    mov dword [esp],0x2053
00000025  E8E4030000        call dword 0x40e
0000002A  A162200000        mov eax,[0x2062]
0000002F  8945E9            mov [ebp-0x17],eax
00000032  A166200000        mov eax,[0x2066]
00000037  8945ED            mov [ebp-0x13],eax
0000003A  0FB7056A200000    movzx eax,word [dword 0x206a]
00000041  668945F1          mov [ebp-0xf],ax
00000045  0FB6056C200000    movzx eax,byte [dword 0x206c]
0000004C  8845F3            mov [ebp-0xd],al
0000004F  8D45E9            lea eax,[ebp-0x17]
00000052  890424            mov [esp],eax
00000055  E8B4030000        call dword 0x40e
0000005A  C745F400000000    mov dword [ebp-0xc],0x0
00000061  EB10              jmp short 0x73
00000063  C704245B200000    mov dword [esp],0x205b
0000006A  E89F030000        call dword 0x40e
0000006F  8345F401          add dword [ebp-0xc],byte +0x1
00000073  837DF413          cmp dword [ebp-0xc],byte +0x13
00000077  7EEA              jng 0x63
00000079  90                nop
0000007A  C9                leave
0000007B  C3                ret
0000007C  6690              xchg ax,ax
0000007E  6690              xchg ax,ax
00000080  E87BFFFFFF        call dword 0x0
00000085  EBFE              jmp short 0x85
00000087  90                nop
00000088  55                push ebp
00000089  89E5              mov ebp,esp
0000008B  83EC14            sub esp,byte +0x14
0000008E  8B4508            mov eax,[ebp+0x8]
00000091  668945EC          mov [ebp-0x14],ax
00000095  0FB745EC          movzx eax,word [ebp-0x14]
00000099  89C2              mov edx,eax
0000009B  EC                in al,dx
0000009C  8845FF            mov [ebp-0x1],al
0000009F  0FB645FF          movzx eax,byte [ebp-0x1]
000000A3  C9                leave
000000A4  C3                ret
000000A5  55                push ebp
000000A6  89E5              mov ebp,esp
000000A8  83EC08            sub esp,byte +0x8
000000AB  8B5508            mov edx,[ebp+0x8]
000000AE  8B450C            mov eax,[ebp+0xc]
000000B1  668955FC          mov [ebp-0x4],dx
000000B5  8845F8            mov [ebp-0x8],al
000000B8  0FB645F8          movzx eax,byte [ebp-0x8]
000000BC  0FB755FC          movzx edx,word [ebp-0x4]
000000C0  EE                out dx,al
000000C1  90                nop
000000C2  C9                leave
000000C3  C3                ret
000000C4  55                push ebp
000000C5  89E5              mov ebp,esp
000000C7  83EC14            sub esp,byte +0x14
000000CA  8B4508            mov eax,[ebp+0x8]
000000CD  668945EC          mov [ebp-0x14],ax
000000D1  0FB745EC          movzx eax,word [ebp-0x14]
000000D5  89C2              mov edx,eax
000000D7  66ED              in ax,dx
000000D9  668945FE          mov [ebp-0x2],ax
000000DD  0FB745FE          movzx eax,word [ebp-0x2]
000000E1  C9                leave
000000E2  C3                ret
000000E3  55                push ebp
000000E4  89E5              mov ebp,esp
000000E6  83EC08            sub esp,byte +0x8
000000E9  8B5508            mov edx,[ebp+0x8]
000000EC  8B450C            mov eax,[ebp+0xc]
000000EF  668955FC          mov [ebp-0x4],dx
000000F3  668945F8          mov [ebp-0x8],ax
000000F7  0FB745F8          movzx eax,word [ebp-0x8]
000000FB  0FB755FC          movzx edx,word [ebp-0x4]
000000FF  66EF              out dx,ax
00000101  90                nop
00000102  C9                leave
00000103  C3                ret
00000104  55                push ebp
00000105  89E5              mov ebp,esp
00000107  83EC28            sub esp,byte +0x28
0000010A  C745F000800B00    mov dword [ebp-0x10],0xb8000
00000111  C645EF0F          mov byte [ebp-0x11],0xf
00000115  C645EE20          mov byte [ebp-0x12],0x20
00000119  E88C000000        call dword 0x1aa
0000011E  8945E8            mov [ebp-0x18],eax
00000121  8B45E8            mov eax,[ebp-0x18]
00000124  890424            mov [esp],eax
00000127  E849010000        call dword 0x275
0000012C  83F818            cmp eax,byte +0x18
0000012F  7E76              jng 0x1a7
00000131  C745F400000000    mov dword [ebp-0xc],0x0
00000138  EB1F              jmp short 0x159
0000013A  8B55F4            mov edx,[ebp-0xc]
0000013D  8B45F0            mov eax,[ebp-0x10]
00000140  01C2              add edx,eax
00000142  8B45F4            mov eax,[ebp-0xc]
00000145  8D88A0000000      lea ecx,[eax+0xa0]
0000014B  8B45F0            mov eax,[ebp-0x10]
0000014E  01C8              add eax,ecx
00000150  0FB600            movzx eax,byte [eax]
00000153  8802              mov [edx],al
00000155  8345F401          add dword [ebp-0xc],byte +0x1
00000159  817DF4FF0E0000    cmp dword [ebp-0xc],0xeff
00000160  7ED8              jng 0x13a
00000162  C745F4000F0000    mov dword [ebp-0xc],0xf00
00000169  EB23              jmp short 0x18e
0000016B  8B55F4            mov edx,[ebp-0xc]
0000016E  8B45F0            mov eax,[ebp-0x10]
00000171  01C2              add edx,eax
00000173  0FB645EE          movzx eax,byte [ebp-0x12]
00000177  8802              mov [edx],al
00000179  8B45F4            mov eax,[ebp-0xc]
0000017C  8D5001            lea edx,[eax+0x1]
0000017F  8B45F0            mov eax,[ebp-0x10]
00000182  01C2              add edx,eax
00000184  0FB645EF          movzx eax,byte [ebp-0x11]
00000188  8802              mov [edx],al
0000018A  8345F402          add dword [ebp-0xc],byte +0x2
0000018E  817DF49F0F0000    cmp dword [ebp-0xc],0xf9f
00000195  7ED4              jng 0x16b
00000197  8B45E8            mov eax,[ebp-0x18]
0000019A  2DA0000000        sub eax,0xa0
0000019F  890424            mov [esp],eax
000001A2  E85F000000        call dword 0x206
000001A7  90                nop
000001A8  C9                leave
000001A9  C3                ret
000001AA  55                push ebp
000001AB  89E5              mov ebp,esp
000001AD  83EC28            sub esp,byte +0x28
000001B0  C74424040E000000  mov dword [esp+0x4],0xe
000001B8  C70424D4030000    mov dword [esp],0x3d4
000001BF  E8E1FEFFFF        call dword 0xa5
000001C4  C70424D5030000    mov dword [esp],0x3d5
000001CB  E8B8FEFFFF        call dword 0x88
000001D0  0FB6C0            movzx eax,al
000001D3  C1E008            shl eax,byte 0x8
000001D6  8945F4            mov [ebp-0xc],eax
000001D9  C74424040F000000  mov dword [esp+0x4],0xf
000001E1  C70424D4030000    mov dword [esp],0x3d4
000001E8  E8B8FEFFFF        call dword 0xa5
000001ED  C70424D5030000    mov dword [esp],0x3d5
000001F4  E88FFEFFFF        call dword 0x88
000001F9  0FB6C0            movzx eax,al
000001FC  0145F4            add [ebp-0xc],eax
000001FF  8B45F4            mov eax,[ebp-0xc]
00000202  01C0              add eax,eax
00000204  C9                leave
00000205  C3                ret
00000206  55                push ebp
00000207  89E5              mov ebp,esp
00000209  83EC18            sub esp,byte +0x18
0000020C  8B4508            mov eax,[ebp+0x8]
0000020F  89C2              mov edx,eax
00000211  C1EA1F            shr edx,byte 0x1f
00000214  01D0              add eax,edx
00000216  D1F8              sar eax,1
00000218  894508            mov [ebp+0x8],eax
0000021B  C74424040E000000  mov dword [esp+0x4],0xe
00000223  C70424D4030000    mov dword [esp],0x3d4
0000022A  E876FEFFFF        call dword 0xa5
0000022F  8B4508            mov eax,[ebp+0x8]
00000232  C1F808            sar eax,byte 0x8
00000235  0FB6C0            movzx eax,al
00000238  89442404          mov [esp+0x4],eax
0000023C  C70424D5030000    mov dword [esp],0x3d5
00000243  E85DFEFFFF        call dword 0xa5
00000248  C74424040F000000  mov dword [esp+0x4],0xf
00000250  C70424D4030000    mov dword [esp],0x3d4
00000257  E849FEFFFF        call dword 0xa5
0000025C  8B4508            mov eax,[ebp+0x8]
0000025F  0FB6C0            movzx eax,al
00000262  89442404          mov [esp+0x4],eax
00000266  C70424D5030000    mov dword [esp],0x3d5
0000026D  E833FEFFFF        call dword 0xa5
00000272  90                nop
00000273  C9                leave
00000274  C3                ret
00000275  55                push ebp
00000276  89E5              mov ebp,esp
00000278  8B4D08            mov ecx,[ebp+0x8]
0000027B  BA67666666        mov edx,0x66666667
00000280  89C8              mov eax,ecx
00000282  F7EA              imul edx
00000284  C1FA06            sar edx,byte 0x6
00000287  89C8              mov eax,ecx
00000289  C1F81F            sar eax,byte 0x1f
0000028C  29C2              sub edx,eax
0000028E  89D0              mov eax,edx
00000290  5D                pop ebp
00000291  C3                ret
00000292  55                push ebp
00000293  89E5              mov ebp,esp
00000295  8B4508            mov eax,[ebp+0x8]
00000298  89C2              mov edx,eax
0000029A  C1EA1F            shr edx,byte 0x1f
0000029D  01D0              add eax,edx
0000029F  D1F8              sar eax,1
000002A1  89C1              mov ecx,eax
000002A3  BA67666666        mov edx,0x66666667
000002A8  89C8              mov eax,ecx
000002AA  F7EA              imul edx
000002AC  C1FA05            sar edx,byte 0x5
000002AF  89C8              mov eax,ecx
000002B1  C1F81F            sar eax,byte 0x1f
000002B4  29C2              sub edx,eax
000002B6  89D0              mov eax,edx
000002B8  C1E002            shl eax,byte 0x2
000002BB  01D0              add eax,edx
000002BD  C1E004            shl eax,byte 0x4
000002C0  29C1              sub ecx,eax
000002C2  89CA              mov edx,ecx
000002C4  89D0              mov eax,edx
000002C6  5D                pop ebp
000002C7  C3                ret
000002C8  55                push ebp
000002C9  89E5              mov ebp,esp
000002CB  8B550C            mov edx,[ebp+0xc]
000002CE  89D0              mov eax,edx
000002D0  C1E002            shl eax,byte 0x2
000002D3  01D0              add eax,edx
000002D5  C1E004            shl eax,byte 0x4
000002D8  89C2              mov edx,eax
000002DA  8B4508            mov eax,[ebp+0x8]
000002DD  01D0              add eax,edx
000002DF  01C0              add eax,eax
000002E1  5D                pop ebp
000002E2  C3                ret
000002E3  55                push ebp
000002E4  89E5              mov ebp,esp
000002E6  83EC38            sub esp,byte +0x38
000002E9  8B5508            mov edx,[ebp+0x8]
000002EC  8B4514            mov eax,[ebp+0x14]
000002EF  8855E4            mov [ebp-0x1c],dl
000002F2  8845E0            mov [ebp-0x20],al
000002F5  C745F000800B00    mov dword [ebp-0x10],0xb8000
000002FC  807DE000          cmp byte [ebp-0x20],0x0
00000300  7504              jnz 0x306
00000302  C645E00F          mov byte [ebp-0x20],0xf
00000306  837D0C00          cmp dword [ebp+0xc],byte +0x0
0000030A  781D              js 0x329
0000030C  837D1000          cmp dword [ebp+0x10],byte +0x0
00000310  7817              js 0x329
00000312  8B4510            mov eax,[ebp+0x10]
00000315  89442404          mov [esp+0x4],eax
00000319  8B450C            mov eax,[ebp+0xc]
0000031C  890424            mov [esp],eax
0000031F  E8A4FFFFFF        call dword 0x2c8
00000324  8945F4            mov [ebp-0xc],eax
00000327  EB08              jmp short 0x331
00000329  E87CFEFFFF        call dword 0x1aa
0000032E  8945F4            mov [ebp-0xc],eax
00000331  807DE40A          cmp byte [ebp-0x1c],0xa
00000335  7526              jnz 0x35d
00000337  8B45F4            mov eax,[ebp-0xc]
0000033A  890424            mov [esp],eax
0000033D  E833FFFFFF        call dword 0x275
00000342  8945EC            mov [ebp-0x14],eax
00000345  8B45EC            mov eax,[ebp-0x14]
00000348  89442404          mov [esp+0x4],eax
0000034C  C704244F000000    mov dword [esp],0x4f
00000353  E870FFFFFF        call dword 0x2c8
00000358  8945F4            mov [ebp-0xc],eax
0000035B  EB1F              jmp short 0x37c
0000035D  8B55F4            mov edx,[ebp-0xc]
00000360  8B45F0            mov eax,[ebp-0x10]
00000363  01C2              add edx,eax
00000365  0FB645E4          movzx eax,byte [ebp-0x1c]
00000369  8802              mov [edx],al
0000036B  8B45F4            mov eax,[ebp-0xc]
0000036E  8D5001            lea edx,[eax+0x1]
00000371  8B45F0            mov eax,[ebp-0x10]
00000374  01C2              add edx,eax
00000376  0FB645E0          movzx eax,byte [ebp-0x20]
0000037A  8802              mov [edx],al
0000037C  8345F402          add dword [ebp-0xc],byte +0x2
00000380  8B45F4            mov eax,[ebp-0xc]
00000383  890424            mov [esp],eax
00000386  E87BFEFFFF        call dword 0x206
0000038B  E874FDFFFF        call dword 0x104
00000390  90                nop
00000391  C9                leave
00000392  C3                ret
00000393  55                push ebp
00000394  89E5              mov ebp,esp
00000396  83EC28            sub esp,byte +0x28
00000399  837D0C00          cmp dword [ebp+0xc],byte +0x0
0000039D  7820              js 0x3bf
0000039F  837D1000          cmp dword [ebp+0x10],byte +0x0
000003A3  781A              js 0x3bf
000003A5  8B4510            mov eax,[ebp+0x10]
000003A8  89442404          mov [esp+0x4],eax
000003AC  8B450C            mov eax,[ebp+0xc]
000003AF  890424            mov [esp],eax
000003B2  E811FFFFFF        call dword 0x2c8
000003B7  890424            mov [esp],eax
000003BA  E847FEFFFF        call dword 0x206
000003BF  C745F400000000    mov dword [ebp-0xc],0x0
000003C6  EB34              jmp short 0x3fc
000003C8  8B45F4            mov eax,[ebp-0xc]
000003CB  8D5001            lea edx,[eax+0x1]
000003CE  8955F4            mov [ebp-0xc],edx
000003D1  89C2              mov edx,eax
000003D3  8B4508            mov eax,[ebp+0x8]
000003D6  01D0              add eax,edx
000003D8  0FB600            movzx eax,byte [eax]
000003DB  0FBEC0            movsx eax,al
000003DE  C744240C0F000000  mov dword [esp+0xc],0xf
000003E6  8B5510            mov edx,[ebp+0x10]
000003E9  89542408          mov [esp+0x8],edx
000003ED  8B550C            mov edx,[ebp+0xc]
000003F0  89542404          mov [esp+0x4],edx
000003F4  890424            mov [esp],eax
000003F7  E8E7FEFFFF        call dword 0x2e3
000003FC  8B55F4            mov edx,[ebp-0xc]
000003FF  8B4508            mov eax,[ebp+0x8]
00000402  01D0              add eax,edx
00000404  0FB600            movzx eax,byte [eax]
00000407  84C0              test al,al
00000409  75BD              jnz 0x3c8
0000040B  90                nop
0000040C  C9                leave
0000040D  C3                ret
0000040E  55                push ebp
0000040F  89E5              mov ebp,esp
00000411  83EC18            sub esp,byte +0x18
00000414  C7442408FFFFFFFF  mov dword [esp+0x8],0xffffffff
0000041C  C7442404FFFFFFFF  mov dword [esp+0x4],0xffffffff
00000424  8B4508            mov eax,[ebp+0x8]
00000427  890424            mov [esp],eax
0000042A  E864FFFFFF        call dword 0x393
0000042F  90                nop
00000430  C9                leave
00000431  C3                ret
00000432  55                push ebp
00000433  89E5              mov ebp,esp
00000435  83EC28            sub esp,byte +0x28
00000438  C745F400000000    mov dword [ebp-0xc],0x0
0000043F  C745F000000000    mov dword [ebp-0x10],0x0
00000446  C745F400000000    mov dword [ebp-0xc],0x0
0000044D  EB39              jmp short 0x488
0000044F  C745F000000000    mov dword [ebp-0x10],0x0
00000456  EB26              jmp short 0x47e
00000458  C744240C0F000000  mov dword [esp+0xc],0xf
00000460  8B45F4            mov eax,[ebp-0xc]
00000463  89442408          mov [esp+0x8],eax
00000467  8B45F0            mov eax,[ebp-0x10]
0000046A  89442404          mov [esp+0x4],eax
0000046E  C7042420000000    mov dword [esp],0x20
00000475  E869FEFFFF        call dword 0x2e3
0000047A  8345F001          add dword [ebp-0x10],byte +0x1
0000047E  837DF04F          cmp dword [ebp-0x10],byte +0x4f
00000482  7ED4              jng 0x458
00000484  8345F401          add dword [ebp-0xc],byte +0x1
00000488  837DF418          cmp dword [ebp-0xc],byte +0x18
0000048C  7EC1              jng 0x44f
0000048E  C744240400000000  mov dword [esp+0x4],0x0
00000496  C7042400000000    mov dword [esp],0x0
0000049D  E826FEFFFF        call dword 0x2c8
000004A2  890424            mov [esp],eax
000004A5  E85CFDFFFF        call dword 0x206
000004AA  90                nop
000004AB  C9                leave
000004AC  C3                ret
000004AD  90                nop
000004AE  90                nop
000004AF  90                nop
000004B0  55                push ebp
000004B1  89E5              mov ebp,esp
000004B3  83EC10            sub esp,byte +0x10
000004B6  C645FF01          mov byte [ebp-0x1],0x1
000004BA  C745F800000000    mov dword [ebp-0x8],0x0
000004C1  668945F8          mov [ebp-0x8],ax
000004C5  8865FF            mov [ebp-0x1],ah
000004C8  CD02              int 0x2
000004CA  668B45F4          mov ax,[ebp-0xc]
000004CE  8B45F4            mov eax,[ebp-0xc]
000004D1  C9                leave
000004D2  C3                ret
000004D3  90                nop
000004D4  FF                db 0xff
000004D5  FF                db 0xff
000004D6  FF                db 0xff
000004D7  FF00              inc dword [eax]
000004D9  0000              add [eax],al
000004DB  00FF              add bh,bh
000004DD  FF                db 0xff
000004DE  FF                db 0xff
000004DF  FF00              inc dword [eax]
000004E1  0000              add [eax],al
000004E3  0000              add [eax],al
000004E5  0000              add [eax],al
000004E7  0000              add [eax],al
000004E9  0000              add [eax],al
000004EB  0000              add [eax],al
000004ED  0000              add [eax],al
000004EF  0000              add [eax],al
000004F1  0000              add [eax],al
000004F3  0000              add [eax],al
000004F5  0000              add [eax],al
000004F7  0000              add [eax],al
000004F9  0000              add [eax],al
000004FB  0000              add [eax],al
000004FD  0000              add [eax],al
000004FF  0000              add [eax],al
00000501  0000              add [eax],al
00000503  0000              add [eax],al
00000505  0000              add [eax],al
00000507  0000              add [eax],al
00000509  0000              add [eax],al
0000050B  0000              add [eax],al
0000050D  0000              add [eax],al
0000050F  0000              add [eax],al
00000511  0000              add [eax],al
00000513  0000              add [eax],al
00000515  0000              add [eax],al
00000517  0000              add [eax],al
00000519  0000              add [eax],al
0000051B  0000              add [eax],al
0000051D  0000              add [eax],al
0000051F  0000              add [eax],al
00000521  0000              add [eax],al
00000523  0000              add [eax],al
00000525  0000              add [eax],al
00000527  0000              add [eax],al
00000529  0000              add [eax],al
0000052B  0000              add [eax],al
0000052D  0000              add [eax],al
0000052F  0000              add [eax],al
00000531  0000              add [eax],al
00000533  0000              add [eax],al
00000535  0000              add [eax],al
00000537  0000              add [eax],al
00000539  0000              add [eax],al
0000053B  0000              add [eax],al
0000053D  0000              add [eax],al
0000053F  0000              add [eax],al
00000541  0000              add [eax],al
00000543  0000              add [eax],al
00000545  0000              add [eax],al
00000547  0000              add [eax],al
00000549  0000              add [eax],al
0000054B  0000              add [eax],al
0000054D  0000              add [eax],al
0000054F  0000              add [eax],al
00000551  0000              add [eax],al
00000553  0000              add [eax],al
00000555  0000              add [eax],al
00000557  0000              add [eax],al
00000559  0000              add [eax],al
0000055B  0000              add [eax],al
0000055D  0000              add [eax],al
0000055F  0000              add [eax],al
00000561  0000              add [eax],al
00000563  0000              add [eax],al
00000565  0000              add [eax],al
00000567  0000              add [eax],al
00000569  0000              add [eax],al
0000056B  0000              add [eax],al
0000056D  0000              add [eax],al
0000056F  0000              add [eax],al
00000571  0000              add [eax],al
00000573  0000              add [eax],al
00000575  0000              add [eax],al
00000577  0000              add [eax],al
00000579  0000              add [eax],al
0000057B  0000              add [eax],al
0000057D  0000              add [eax],al
0000057F  0000              add [eax],al
00000581  0000              add [eax],al
00000583  0000              add [eax],al
00000585  0000              add [eax],al
00000587  0000              add [eax],al
00000589  0000              add [eax],al
0000058B  0000              add [eax],al
0000058D  0000              add [eax],al
0000058F  0000              add [eax],al
00000591  0000              add [eax],al
00000593  0000              add [eax],al
00000595  0000              add [eax],al
00000597  0000              add [eax],al
00000599  0000              add [eax],al
0000059B  0000              add [eax],al
0000059D  0000              add [eax],al
0000059F  0000              add [eax],al
000005A1  0000              add [eax],al
000005A3  0000              add [eax],al
000005A5  0000              add [eax],al
000005A7  0000              add [eax],al
000005A9  0000              add [eax],al
000005AB  0000              add [eax],al
000005AD  0000              add [eax],al
000005AF  0000              add [eax],al
000005B1  0000              add [eax],al
000005B3  0000              add [eax],al
000005B5  0000              add [eax],al
000005B7  0000              add [eax],al
000005B9  0000              add [eax],al
000005BB  0000              add [eax],al
000005BD  0000              add [eax],al
000005BF  0000              add [eax],al
000005C1  0000              add [eax],al
000005C3  0000              add [eax],al
000005C5  0000              add [eax],al
000005C7  0000              add [eax],al
000005C9  0000              add [eax],al
000005CB  0000              add [eax],al
000005CD  0000              add [eax],al
000005CF  0000              add [eax],al
000005D1  0000              add [eax],al
000005D3  0000              add [eax],al
000005D5  0000              add [eax],al
000005D7  0000              add [eax],al
000005D9  0000              add [eax],al
000005DB  0000              add [eax],al
000005DD  0000              add [eax],al
000005DF  0000              add [eax],al
000005E1  0000              add [eax],al
000005E3  0000              add [eax],al
000005E5  0000              add [eax],al
000005E7  0000              add [eax],al
000005E9  0000              add [eax],al
000005EB  0000              add [eax],al
000005ED  0000              add [eax],al
000005EF  0000              add [eax],al
000005F1  0000              add [eax],al
000005F3  0000              add [eax],al
000005F5  0000              add [eax],al
000005F7  0000              add [eax],al
000005F9  0000              add [eax],al
000005FB  0000              add [eax],al
000005FD  0000              add [eax],al
000005FF  0000              add [eax],al
00000601  0000              add [eax],al
00000603  0000              add [eax],al
00000605  0000              add [eax],al
00000607  0000              add [eax],al
00000609  0000              add [eax],al
0000060B  0000              add [eax],al
0000060D  0000              add [eax],al
0000060F  0000              add [eax],al
00000611  0000              add [eax],al
00000613  0000              add [eax],al
00000615  0000              add [eax],al
00000617  0000              add [eax],al
00000619  0000              add [eax],al
0000061B  0000              add [eax],al
0000061D  0000              add [eax],al
0000061F  0000              add [eax],al
00000621  0000              add [eax],al
00000623  0000              add [eax],al
00000625  0000              add [eax],al
00000627  0000              add [eax],al
00000629  0000              add [eax],al
0000062B  0000              add [eax],al
0000062D  0000              add [eax],al
0000062F  0000              add [eax],al
00000631  0000              add [eax],al
00000633  0000              add [eax],al
00000635  0000              add [eax],al
00000637  0000              add [eax],al
00000639  0000              add [eax],al
0000063B  0000              add [eax],al
0000063D  0000              add [eax],al
0000063F  0000              add [eax],al
00000641  0000              add [eax],al
00000643  0000              add [eax],al
00000645  0000              add [eax],al
00000647  0000              add [eax],al
00000649  0000              add [eax],al
0000064B  0000              add [eax],al
0000064D  0000              add [eax],al
0000064F  0000              add [eax],al
00000651  0000              add [eax],al
00000653  0000              add [eax],al
00000655  0000              add [eax],al
00000657  0000              add [eax],al
00000659  0000              add [eax],al
0000065B  0000              add [eax],al
0000065D  0000              add [eax],al
0000065F  0000              add [eax],al
00000661  0000              add [eax],al
00000663  0000              add [eax],al
00000665  0000              add [eax],al
00000667  0000              add [eax],al
00000669  0000              add [eax],al
0000066B  0000              add [eax],al
0000066D  0000              add [eax],al
0000066F  0000              add [eax],al
00000671  0000              add [eax],al
00000673  0000              add [eax],al
00000675  0000              add [eax],al
00000677  0000              add [eax],al
00000679  0000              add [eax],al
0000067B  0000              add [eax],al
0000067D  0000              add [eax],al
0000067F  0000              add [eax],al
00000681  0000              add [eax],al
00000683  0000              add [eax],al
00000685  0000              add [eax],al
00000687  0000              add [eax],al
00000689  0000              add [eax],al
0000068B  0000              add [eax],al
0000068D  0000              add [eax],al
0000068F  0000              add [eax],al
00000691  0000              add [eax],al
00000693  0000              add [eax],al
00000695  0000              add [eax],al
00000697  0000              add [eax],al
00000699  0000              add [eax],al
0000069B  0000              add [eax],al
0000069D  0000              add [eax],al
0000069F  0000              add [eax],al
000006A1  0000              add [eax],al
000006A3  0000              add [eax],al
000006A5  0000              add [eax],al
000006A7  0000              add [eax],al
000006A9  0000              add [eax],al
000006AB  0000              add [eax],al
000006AD  0000              add [eax],al
000006AF  0000              add [eax],al
000006B1  0000              add [eax],al
000006B3  0000              add [eax],al
000006B5  0000              add [eax],al
000006B7  0000              add [eax],al
000006B9  0000              add [eax],al
000006BB  0000              add [eax],al
000006BD  0000              add [eax],al
000006BF  0000              add [eax],al
000006C1  0000              add [eax],al
000006C3  0000              add [eax],al
000006C5  0000              add [eax],al
000006C7  0000              add [eax],al
000006C9  0000              add [eax],al
000006CB  0000              add [eax],al
000006CD  0000              add [eax],al
000006CF  0000              add [eax],al
000006D1  0000              add [eax],al
000006D3  0000              add [eax],al
000006D5  0000              add [eax],al
000006D7  0000              add [eax],al
000006D9  0000              add [eax],al
000006DB  0000              add [eax],al
000006DD  0000              add [eax],al
000006DF  0000              add [eax],al
000006E1  0000              add [eax],al
000006E3  0000              add [eax],al
000006E5  0000              add [eax],al
000006E7  0000              add [eax],al
000006E9  0000              add [eax],al
000006EB  0000              add [eax],al
000006ED  0000              add [eax],al
000006EF  0000              add [eax],al
000006F1  0000              add [eax],al
000006F3  0000              add [eax],al
000006F5  0000              add [eax],al
000006F7  0000              add [eax],al
000006F9  0000              add [eax],al
000006FB  0000              add [eax],al
000006FD  0000              add [eax],al
000006FF  0000              add [eax],al
00000701  0000              add [eax],al
00000703  0000              add [eax],al
00000705  0000              add [eax],al
00000707  0000              add [eax],al
00000709  0000              add [eax],al
0000070B  0000              add [eax],al
0000070D  0000              add [eax],al
0000070F  0000              add [eax],al
00000711  0000              add [eax],al
00000713  0000              add [eax],al
00000715  0000              add [eax],al
00000717  0000              add [eax],al
00000719  0000              add [eax],al
0000071B  0000              add [eax],al
0000071D  0000              add [eax],al
0000071F  0000              add [eax],al
00000721  0000              add [eax],al
00000723  0000              add [eax],al
00000725  0000              add [eax],al
00000727  0000              add [eax],al
00000729  0000              add [eax],al
0000072B  0000              add [eax],al
0000072D  0000              add [eax],al
0000072F  0000              add [eax],al
00000731  0000              add [eax],al
00000733  0000              add [eax],al
00000735  0000              add [eax],al
00000737  0000              add [eax],al
00000739  0000              add [eax],al
0000073B  0000              add [eax],al
0000073D  0000              add [eax],al
0000073F  0000              add [eax],al
00000741  0000              add [eax],al
00000743  0000              add [eax],al
00000745  0000              add [eax],al
00000747  0000              add [eax],al
00000749  0000              add [eax],al
0000074B  0000              add [eax],al
0000074D  0000              add [eax],al
0000074F  0000              add [eax],al
00000751  0000              add [eax],al
00000753  0000              add [eax],al
00000755  0000              add [eax],al
00000757  0000              add [eax],al
00000759  0000              add [eax],al
0000075B  0000              add [eax],al
0000075D  0000              add [eax],al
0000075F  0000              add [eax],al
00000761  0000              add [eax],al
00000763  0000              add [eax],al
00000765  0000              add [eax],al
00000767  0000              add [eax],al
00000769  0000              add [eax],al
0000076B  0000              add [eax],al
0000076D  0000              add [eax],al
0000076F  0000              add [eax],al
00000771  0000              add [eax],al
00000773  0000              add [eax],al
00000775  0000              add [eax],al
00000777  0000              add [eax],al
00000779  0000              add [eax],al
0000077B  0000              add [eax],al
0000077D  0000              add [eax],al
0000077F  0000              add [eax],al
00000781  0000              add [eax],al
00000783  0000              add [eax],al
00000785  0000              add [eax],al
00000787  0000              add [eax],al
00000789  0000              add [eax],al
0000078B  0000              add [eax],al
0000078D  0000              add [eax],al
0000078F  0000              add [eax],al
00000791  0000              add [eax],al
00000793  0000              add [eax],al
00000795  0000              add [eax],al
00000797  0000              add [eax],al
00000799  0000              add [eax],al
0000079B  0000              add [eax],al
0000079D  0000              add [eax],al
0000079F  0000              add [eax],al
000007A1  0000              add [eax],al
000007A3  0000              add [eax],al
000007A5  0000              add [eax],al
000007A7  0000              add [eax],al
000007A9  0000              add [eax],al
000007AB  0000              add [eax],al
000007AD  0000              add [eax],al
000007AF  0000              add [eax],al
000007B1  0000              add [eax],al
000007B3  0000              add [eax],al
000007B5  0000              add [eax],al
000007B7  0000              add [eax],al
000007B9  0000              add [eax],al
000007BB  0000              add [eax],al
000007BD  0000              add [eax],al
000007BF  0000              add [eax],al
000007C1  0000              add [eax],al
000007C3  0000              add [eax],al
000007C5  0000              add [eax],al
000007C7  0000              add [eax],al
000007C9  0000              add [eax],al
000007CB  0000              add [eax],al
000007CD  0000              add [eax],al
000007CF  0000              add [eax],al
000007D1  0000              add [eax],al
000007D3  0000              add [eax],al
000007D5  0000              add [eax],al
000007D7  0000              add [eax],al
000007D9  0000              add [eax],al
000007DB  0000              add [eax],al
000007DD  0000              add [eax],al
000007DF  0000              add [eax],al
000007E1  0000              add [eax],al
000007E3  0000              add [eax],al
000007E5  0000              add [eax],al
000007E7  0000              add [eax],al
000007E9  0000              add [eax],al
000007EB  0000              add [eax],al
000007ED  0000              add [eax],al
000007EF  0000              add [eax],al
000007F1  0000              add [eax],al
000007F3  0000              add [eax],al
000007F5  0000              add [eax],al
000007F7  0000              add [eax],al
000007F9  0000              add [eax],al
000007FB  0000              add [eax],al
000007FD  0000              add [eax],al
000007FF  0000              add [eax],al
00000801  0000              add [eax],al
00000803  0000              add [eax],al
00000805  0000              add [eax],al
00000807  0000              add [eax],al
00000809  0000              add [eax],al
0000080B  0000              add [eax],al
0000080D  0000              add [eax],al
0000080F  0000              add [eax],al
00000811  0000              add [eax],al
00000813  0000              add [eax],al
00000815  0000              add [eax],al
00000817  0000              add [eax],al
00000819  0000              add [eax],al
0000081B  0000              add [eax],al
0000081D  0000              add [eax],al
0000081F  0000              add [eax],al
00000821  0000              add [eax],al
00000823  0000              add [eax],al
00000825  0000              add [eax],al
00000827  0000              add [eax],al
00000829  0000              add [eax],al
0000082B  0000              add [eax],al
0000082D  0000              add [eax],al
0000082F  0000              add [eax],al
00000831  0000              add [eax],al
00000833  0000              add [eax],al
00000835  0000              add [eax],al
00000837  0000              add [eax],al
00000839  0000              add [eax],al
0000083B  0000              add [eax],al
0000083D  0000              add [eax],al
0000083F  0000              add [eax],al
00000841  0000              add [eax],al
00000843  0000              add [eax],al
00000845  0000              add [eax],al
00000847  0000              add [eax],al
00000849  0000              add [eax],al
0000084B  0000              add [eax],al
0000084D  0000              add [eax],al
0000084F  0000              add [eax],al
00000851  0000              add [eax],al
00000853  0000              add [eax],al
00000855  0000              add [eax],al
00000857  0000              add [eax],al
00000859  0000              add [eax],al
0000085B  0000              add [eax],al
0000085D  0000              add [eax],al
0000085F  0000              add [eax],al
00000861  0000              add [eax],al
00000863  0000              add [eax],al
00000865  0000              add [eax],al
00000867  0000              add [eax],al
00000869  0000              add [eax],al
0000086B  0000              add [eax],al
0000086D  0000              add [eax],al
0000086F  0000              add [eax],al
00000871  0000              add [eax],al
00000873  0000              add [eax],al
00000875  0000              add [eax],al
00000877  0000              add [eax],al
00000879  0000              add [eax],al
0000087B  0000              add [eax],al
0000087D  0000              add [eax],al
0000087F  0000              add [eax],al
00000881  0000              add [eax],al
00000883  0000              add [eax],al
00000885  0000              add [eax],al
00000887  0000              add [eax],al
00000889  0000              add [eax],al
0000088B  0000              add [eax],al
0000088D  0000              add [eax],al
0000088F  0000              add [eax],al
00000891  0000              add [eax],al
00000893  0000              add [eax],al
00000895  0000              add [eax],al
00000897  0000              add [eax],al
00000899  0000              add [eax],al
0000089B  0000              add [eax],al
0000089D  0000              add [eax],al
0000089F  0000              add [eax],al
000008A1  0000              add [eax],al
000008A3  0000              add [eax],al
000008A5  0000              add [eax],al
000008A7  0000              add [eax],al
000008A9  0000              add [eax],al
000008AB  0000              add [eax],al
000008AD  0000              add [eax],al
000008AF  0000              add [eax],al
000008B1  0000              add [eax],al
000008B3  0000              add [eax],al
000008B5  0000              add [eax],al
000008B7  0000              add [eax],al
000008B9  0000              add [eax],al
000008BB  0000              add [eax],al
000008BD  0000              add [eax],al
000008BF  0000              add [eax],al
000008C1  0000              add [eax],al
000008C3  0000              add [eax],al
000008C5  0000              add [eax],al
000008C7  0000              add [eax],al
000008C9  0000              add [eax],al
000008CB  0000              add [eax],al
000008CD  0000              add [eax],al
000008CF  0000              add [eax],al
000008D1  0000              add [eax],al
000008D3  0000              add [eax],al
000008D5  0000              add [eax],al
000008D7  0000              add [eax],al
000008D9  0000              add [eax],al
000008DB  0000              add [eax],al
000008DD  0000              add [eax],al
000008DF  0000              add [eax],al
000008E1  0000              add [eax],al
000008E3  0000              add [eax],al
000008E5  0000              add [eax],al
000008E7  0000              add [eax],al
000008E9  0000              add [eax],al
000008EB  0000              add [eax],al
000008ED  0000              add [eax],al
000008EF  0000              add [eax],al
000008F1  0000              add [eax],al
000008F3  0000              add [eax],al
000008F5  0000              add [eax],al
000008F7  0000              add [eax],al
000008F9  0000              add [eax],al
000008FB  0000              add [eax],al
000008FD  0000              add [eax],al
000008FF  0000              add [eax],al
00000901  0000              add [eax],al
00000903  0000              add [eax],al
00000905  0000              add [eax],al
00000907  0000              add [eax],al
00000909  0000              add [eax],al
0000090B  0000              add [eax],al
0000090D  0000              add [eax],al
0000090F  0000              add [eax],al
00000911  0000              add [eax],al
00000913  0000              add [eax],al
00000915  0000              add [eax],al
00000917  0000              add [eax],al
00000919  0000              add [eax],al
0000091B  0000              add [eax],al
0000091D  0000              add [eax],al
0000091F  0000              add [eax],al
00000921  0000              add [eax],al
00000923  0000              add [eax],al
00000925  0000              add [eax],al
00000927  0000              add [eax],al
00000929  0000              add [eax],al
0000092B  0000              add [eax],al
0000092D  0000              add [eax],al
0000092F  0000              add [eax],al
00000931  0000              add [eax],al
00000933  0000              add [eax],al
00000935  0000              add [eax],al
00000937  0000              add [eax],al
00000939  0000              add [eax],al
0000093B  0000              add [eax],al
0000093D  0000              add [eax],al
0000093F  0000              add [eax],al
00000941  0000              add [eax],al
00000943  0000              add [eax],al
00000945  0000              add [eax],al
00000947  0000              add [eax],al
00000949  0000              add [eax],al
0000094B  0000              add [eax],al
0000094D  0000              add [eax],al
0000094F  0000              add [eax],al
00000951  0000              add [eax],al
00000953  0000              add [eax],al
00000955  0000              add [eax],al
00000957  0000              add [eax],al
00000959  0000              add [eax],al
0000095B  0000              add [eax],al
0000095D  0000              add [eax],al
0000095F  0000              add [eax],al
00000961  0000              add [eax],al
00000963  0000              add [eax],al
00000965  0000              add [eax],al
00000967  0000              add [eax],al
00000969  0000              add [eax],al
0000096B  0000              add [eax],al
0000096D  0000              add [eax],al
0000096F  0000              add [eax],al
00000971  0000              add [eax],al
00000973  0000              add [eax],al
00000975  0000              add [eax],al
00000977  0000              add [eax],al
00000979  0000              add [eax],al
0000097B  0000              add [eax],al
0000097D  0000              add [eax],al
0000097F  0000              add [eax],al
00000981  0000              add [eax],al
00000983  0000              add [eax],al
00000985  0000              add [eax],al
00000987  0000              add [eax],al
00000989  0000              add [eax],al
0000098B  0000              add [eax],al
0000098D  0000              add [eax],al
0000098F  0000              add [eax],al
00000991  0000              add [eax],al
00000993  0000              add [eax],al
00000995  0000              add [eax],al
00000997  0000              add [eax],al
00000999  0000              add [eax],al
0000099B  0000              add [eax],al
0000099D  0000              add [eax],al
0000099F  0000              add [eax],al
000009A1  0000              add [eax],al
000009A3  0000              add [eax],al
000009A5  0000              add [eax],al
000009A7  0000              add [eax],al
000009A9  0000              add [eax],al
000009AB  0000              add [eax],al
000009AD  0000              add [eax],al
000009AF  0000              add [eax],al
000009B1  0000              add [eax],al
000009B3  0000              add [eax],al
000009B5  0000              add [eax],al
000009B7  0000              add [eax],al
000009B9  0000              add [eax],al
000009BB  0000              add [eax],al
000009BD  0000              add [eax],al
000009BF  0000              add [eax],al
000009C1  0000              add [eax],al
000009C3  0000              add [eax],al
000009C5  0000              add [eax],al
000009C7  0000              add [eax],al
000009C9  0000              add [eax],al
000009CB  0000              add [eax],al
000009CD  0000              add [eax],al
000009CF  0000              add [eax],al
000009D1  0000              add [eax],al
000009D3  0000              add [eax],al
000009D5  0000              add [eax],al
000009D7  0000              add [eax],al
000009D9  0000              add [eax],al
000009DB  0000              add [eax],al
000009DD  0000              add [eax],al
000009DF  0000              add [eax],al
000009E1  0000              add [eax],al
000009E3  0000              add [eax],al
000009E5  0000              add [eax],al
000009E7  0000              add [eax],al
000009E9  0000              add [eax],al
000009EB  0000              add [eax],al
000009ED  0000              add [eax],al
000009EF  0000              add [eax],al
000009F1  0000              add [eax],al
000009F3  0000              add [eax],al
000009F5  0000              add [eax],al
000009F7  0000              add [eax],al
000009F9  0000              add [eax],al
000009FB  0000              add [eax],al
000009FD  0000              add [eax],al
000009FF  0000              add [eax],al
00000A01  0000              add [eax],al
00000A03  0000              add [eax],al
00000A05  0000              add [eax],al
00000A07  0000              add [eax],al
00000A09  0000              add [eax],al
00000A0B  0000              add [eax],al
00000A0D  0000              add [eax],al
00000A0F  0000              add [eax],al
00000A11  0000              add [eax],al
00000A13  0000              add [eax],al
00000A15  0000              add [eax],al
00000A17  0000              add [eax],al
00000A19  0000              add [eax],al
00000A1B  0000              add [eax],al
00000A1D  0000              add [eax],al
00000A1F  0000              add [eax],al
00000A21  0000              add [eax],al
00000A23  0000              add [eax],al
00000A25  0000              add [eax],al
00000A27  0000              add [eax],al
00000A29  0000              add [eax],al
00000A2B  0000              add [eax],al
00000A2D  0000              add [eax],al
00000A2F  0000              add [eax],al
00000A31  0000              add [eax],al
00000A33  0000              add [eax],al
00000A35  0000              add [eax],al
00000A37  0000              add [eax],al
00000A39  0000              add [eax],al
00000A3B  0000              add [eax],al
00000A3D  0000              add [eax],al
00000A3F  0000              add [eax],al
00000A41  0000              add [eax],al
00000A43  0000              add [eax],al
00000A45  0000              add [eax],al
00000A47  0000              add [eax],al
00000A49  0000              add [eax],al
00000A4B  0000              add [eax],al
00000A4D  0000              add [eax],al
00000A4F  0000              add [eax],al
00000A51  0000              add [eax],al
00000A53  0000              add [eax],al
00000A55  0000              add [eax],al
00000A57  0000              add [eax],al
00000A59  0000              add [eax],al
00000A5B  0000              add [eax],al
00000A5D  0000              add [eax],al
00000A5F  0000              add [eax],al
00000A61  0000              add [eax],al
00000A63  0000              add [eax],al
00000A65  0000              add [eax],al
00000A67  0000              add [eax],al
00000A69  0000              add [eax],al
00000A6B  0000              add [eax],al
00000A6D  0000              add [eax],al
00000A6F  0000              add [eax],al
00000A71  0000              add [eax],al
00000A73  0000              add [eax],al
00000A75  0000              add [eax],al
00000A77  0000              add [eax],al
00000A79  0000              add [eax],al
00000A7B  0000              add [eax],al
00000A7D  0000              add [eax],al
00000A7F  0000              add [eax],al
00000A81  0000              add [eax],al
00000A83  0000              add [eax],al
00000A85  0000              add [eax],al
00000A87  0000              add [eax],al
00000A89  0000              add [eax],al
00000A8B  0000              add [eax],al
00000A8D  0000              add [eax],al
00000A8F  0000              add [eax],al
00000A91  0000              add [eax],al
00000A93  0000              add [eax],al
00000A95  0000              add [eax],al
00000A97  0000              add [eax],al
00000A99  0000              add [eax],al
00000A9B  0000              add [eax],al
00000A9D  0000              add [eax],al
00000A9F  0000              add [eax],al
00000AA1  0000              add [eax],al
00000AA3  0000              add [eax],al
00000AA5  0000              add [eax],al
00000AA7  0000              add [eax],al
00000AA9  0000              add [eax],al
00000AAB  0000              add [eax],al
00000AAD  0000              add [eax],al
00000AAF  0000              add [eax],al
00000AB1  0000              add [eax],al
00000AB3  0000              add [eax],al
00000AB5  0000              add [eax],al
00000AB7  0000              add [eax],al
00000AB9  0000              add [eax],al
00000ABB  0000              add [eax],al
00000ABD  0000              add [eax],al
00000ABF  0000              add [eax],al
00000AC1  0000              add [eax],al
00000AC3  0000              add [eax],al
00000AC5  0000              add [eax],al
00000AC7  0000              add [eax],al
00000AC9  0000              add [eax],al
00000ACB  0000              add [eax],al
00000ACD  0000              add [eax],al
00000ACF  0000              add [eax],al
00000AD1  0000              add [eax],al
00000AD3  0000              add [eax],al
00000AD5  0000              add [eax],al
00000AD7  0000              add [eax],al
00000AD9  0000              add [eax],al
00000ADB  0000              add [eax],al
00000ADD  0000              add [eax],al
00000ADF  0000              add [eax],al
00000AE1  0000              add [eax],al
00000AE3  0000              add [eax],al
00000AE5  0000              add [eax],al
00000AE7  0000              add [eax],al
00000AE9  0000              add [eax],al
00000AEB  0000              add [eax],al
00000AED  0000              add [eax],al
00000AEF  0000              add [eax],al
00000AF1  0000              add [eax],al
00000AF3  0000              add [eax],al
00000AF5  0000              add [eax],al
00000AF7  0000              add [eax],al
00000AF9  0000              add [eax],al
00000AFB  0000              add [eax],al
00000AFD  0000              add [eax],al
00000AFF  0000              add [eax],al
00000B01  0000              add [eax],al
00000B03  0000              add [eax],al
00000B05  0000              add [eax],al
00000B07  0000              add [eax],al
00000B09  0000              add [eax],al
00000B0B  0000              add [eax],al
00000B0D  0000              add [eax],al
00000B0F  0000              add [eax],al
00000B11  0000              add [eax],al
00000B13  0000              add [eax],al
00000B15  0000              add [eax],al
00000B17  0000              add [eax],al
00000B19  0000              add [eax],al
00000B1B  0000              add [eax],al
00000B1D  0000              add [eax],al
00000B1F  0000              add [eax],al
00000B21  0000              add [eax],al
00000B23  0000              add [eax],al
00000B25  0000              add [eax],al
00000B27  0000              add [eax],al
00000B29  0000              add [eax],al
00000B2B  0000              add [eax],al
00000B2D  0000              add [eax],al
00000B2F  0000              add [eax],al
00000B31  0000              add [eax],al
00000B33  0000              add [eax],al
00000B35  0000              add [eax],al
00000B37  0000              add [eax],al
00000B39  0000              add [eax],al
00000B3B  0000              add [eax],al
00000B3D  0000              add [eax],al
00000B3F  0000              add [eax],al
00000B41  0000              add [eax],al
00000B43  0000              add [eax],al
00000B45  0000              add [eax],al
00000B47  0000              add [eax],al
00000B49  0000              add [eax],al
00000B4B  0000              add [eax],al
00000B4D  0000              add [eax],al
00000B4F  0000              add [eax],al
00000B51  0000              add [eax],al
00000B53  0000              add [eax],al
00000B55  0000              add [eax],al
00000B57  0000              add [eax],al
00000B59  0000              add [eax],al
00000B5B  0000              add [eax],al
00000B5D  0000              add [eax],al
00000B5F  0000              add [eax],al
00000B61  0000              add [eax],al
00000B63  0000              add [eax],al
00000B65  0000              add [eax],al
00000B67  0000              add [eax],al
00000B69  0000              add [eax],al
00000B6B  0000              add [eax],al
00000B6D  0000              add [eax],al
00000B6F  0000              add [eax],al
00000B71  0000              add [eax],al
00000B73  0000              add [eax],al
00000B75  0000              add [eax],al
00000B77  0000              add [eax],al
00000B79  0000              add [eax],al
00000B7B  0000              add [eax],al
00000B7D  0000              add [eax],al
00000B7F  0000              add [eax],al
00000B81  0000              add [eax],al
00000B83  0000              add [eax],al
00000B85  0000              add [eax],al
00000B87  0000              add [eax],al
00000B89  0000              add [eax],al
00000B8B  0000              add [eax],al
00000B8D  0000              add [eax],al
00000B8F  0000              add [eax],al
00000B91  0000              add [eax],al
00000B93  0000              add [eax],al
00000B95  0000              add [eax],al
00000B97  0000              add [eax],al
00000B99  0000              add [eax],al
00000B9B  0000              add [eax],al
00000B9D  0000              add [eax],al
00000B9F  0000              add [eax],al
00000BA1  0000              add [eax],al
00000BA3  0000              add [eax],al
00000BA5  0000              add [eax],al
00000BA7  0000              add [eax],al
00000BA9  0000              add [eax],al
00000BAB  0000              add [eax],al
00000BAD  0000              add [eax],al
00000BAF  0000              add [eax],al
00000BB1  0000              add [eax],al
00000BB3  0000              add [eax],al
00000BB5  0000              add [eax],al
00000BB7  0000              add [eax],al
00000BB9  0000              add [eax],al
00000BBB  0000              add [eax],al
00000BBD  0000              add [eax],al
00000BBF  0000              add [eax],al
00000BC1  0000              add [eax],al
00000BC3  0000              add [eax],al
00000BC5  0000              add [eax],al
00000BC7  0000              add [eax],al
00000BC9  0000              add [eax],al
00000BCB  0000              add [eax],al
00000BCD  0000              add [eax],al
00000BCF  0000              add [eax],al
00000BD1  0000              add [eax],al
00000BD3  0000              add [eax],al
00000BD5  0000              add [eax],al
00000BD7  0000              add [eax],al
00000BD9  0000              add [eax],al
00000BDB  0000              add [eax],al
00000BDD  0000              add [eax],al
00000BDF  0000              add [eax],al
00000BE1  0000              add [eax],al
00000BE3  0000              add [eax],al
00000BE5  0000              add [eax],al
00000BE7  0000              add [eax],al
00000BE9  0000              add [eax],al
00000BEB  0000              add [eax],al
00000BED  0000              add [eax],al
00000BEF  0000              add [eax],al
00000BF1  0000              add [eax],al
00000BF3  0000              add [eax],al
00000BF5  0000              add [eax],al
00000BF7  0000              add [eax],al
00000BF9  0000              add [eax],al
00000BFB  0000              add [eax],al
00000BFD  0000              add [eax],al
00000BFF  0000              add [eax],al
00000C01  0000              add [eax],al
00000C03  0000              add [eax],al
00000C05  0000              add [eax],al
00000C07  0000              add [eax],al
00000C09  0000              add [eax],al
00000C0B  0000              add [eax],al
00000C0D  0000              add [eax],al
00000C0F  0000              add [eax],al
00000C11  0000              add [eax],al
00000C13  0000              add [eax],al
00000C15  0000              add [eax],al
00000C17  0000              add [eax],al
00000C19  0000              add [eax],al
00000C1B  0000              add [eax],al
00000C1D  0000              add [eax],al
00000C1F  0000              add [eax],al
00000C21  0000              add [eax],al
00000C23  0000              add [eax],al
00000C25  0000              add [eax],al
00000C27  0000              add [eax],al
00000C29  0000              add [eax],al
00000C2B  0000              add [eax],al
00000C2D  0000              add [eax],al
00000C2F  0000              add [eax],al
00000C31  0000              add [eax],al
00000C33  0000              add [eax],al
00000C35  0000              add [eax],al
00000C37  0000              add [eax],al
00000C39  0000              add [eax],al
00000C3B  0000              add [eax],al
00000C3D  0000              add [eax],al
00000C3F  0000              add [eax],al
00000C41  0000              add [eax],al
00000C43  0000              add [eax],al
00000C45  0000              add [eax],al
00000C47  0000              add [eax],al
00000C49  0000              add [eax],al
00000C4B  0000              add [eax],al
00000C4D  0000              add [eax],al
00000C4F  0000              add [eax],al
00000C51  0000              add [eax],al
00000C53  0000              add [eax],al
00000C55  0000              add [eax],al
00000C57  0000              add [eax],al
00000C59  0000              add [eax],al
00000C5B  0000              add [eax],al
00000C5D  0000              add [eax],al
00000C5F  0000              add [eax],al
00000C61  0000              add [eax],al
00000C63  0000              add [eax],al
00000C65  0000              add [eax],al
00000C67  0000              add [eax],al
00000C69  0000              add [eax],al
00000C6B  0000              add [eax],al
00000C6D  0000              add [eax],al
00000C6F  0000              add [eax],al
00000C71  0000              add [eax],al
00000C73  0000              add [eax],al
00000C75  0000              add [eax],al
00000C77  0000              add [eax],al
00000C79  0000              add [eax],al
00000C7B  0000              add [eax],al
00000C7D  0000              add [eax],al
00000C7F  0000              add [eax],al
00000C81  0000              add [eax],al
00000C83  0000              add [eax],al
00000C85  0000              add [eax],al
00000C87  0000              add [eax],al
00000C89  0000              add [eax],al
00000C8B  0000              add [eax],al
00000C8D  0000              add [eax],al
00000C8F  0000              add [eax],al
00000C91  0000              add [eax],al
00000C93  0000              add [eax],al
00000C95  0000              add [eax],al
00000C97  0000              add [eax],al
00000C99  0000              add [eax],al
00000C9B  0000              add [eax],al
00000C9D  0000              add [eax],al
00000C9F  0000              add [eax],al
00000CA1  0000              add [eax],al
00000CA3  0000              add [eax],al
00000CA5  0000              add [eax],al
00000CA7  0000              add [eax],al
00000CA9  0000              add [eax],al
00000CAB  0000              add [eax],al
00000CAD  0000              add [eax],al
00000CAF  0000              add [eax],al
00000CB1  0000              add [eax],al
00000CB3  0000              add [eax],al
00000CB5  0000              add [eax],al
00000CB7  0000              add [eax],al
00000CB9  0000              add [eax],al
00000CBB  0000              add [eax],al
00000CBD  0000              add [eax],al
00000CBF  0000              add [eax],al
00000CC1  0000              add [eax],al
00000CC3  0000              add [eax],al
00000CC5  0000              add [eax],al
00000CC7  0000              add [eax],al
00000CC9  0000              add [eax],al
00000CCB  0000              add [eax],al
00000CCD  0000              add [eax],al
00000CCF  0000              add [eax],al
00000CD1  0000              add [eax],al
00000CD3  0000              add [eax],al
00000CD5  0000              add [eax],al
00000CD7  0000              add [eax],al
00000CD9  0000              add [eax],al
00000CDB  0000              add [eax],al
00000CDD  0000              add [eax],al
00000CDF  0000              add [eax],al
00000CE1  0000              add [eax],al
00000CE3  0000              add [eax],al
00000CE5  0000              add [eax],al
00000CE7  0000              add [eax],al
00000CE9  0000              add [eax],al
00000CEB  0000              add [eax],al
00000CED  0000              add [eax],al
00000CEF  0000              add [eax],al
00000CF1  0000              add [eax],al
00000CF3  0000              add [eax],al
00000CF5  0000              add [eax],al
00000CF7  0000              add [eax],al
00000CF9  0000              add [eax],al
00000CFB  0000              add [eax],al
00000CFD  0000              add [eax],al
00000CFF  0000              add [eax],al
00000D01  0000              add [eax],al
00000D03  0000              add [eax],al
00000D05  0000              add [eax],al
00000D07  0000              add [eax],al
00000D09  0000              add [eax],al
00000D0B  0000              add [eax],al
00000D0D  0000              add [eax],al
00000D0F  0000              add [eax],al
00000D11  0000              add [eax],al
00000D13  0000              add [eax],al
00000D15  0000              add [eax],al
00000D17  0000              add [eax],al
00000D19  0000              add [eax],al
00000D1B  0000              add [eax],al
00000D1D  0000              add [eax],al
00000D1F  0000              add [eax],al
00000D21  0000              add [eax],al
00000D23  0000              add [eax],al
00000D25  0000              add [eax],al
00000D27  0000              add [eax],al
00000D29  0000              add [eax],al
00000D2B  0000              add [eax],al
00000D2D  0000              add [eax],al
00000D2F  0000              add [eax],al
00000D31  0000              add [eax],al
00000D33  0000              add [eax],al
00000D35  0000              add [eax],al
00000D37  0000              add [eax],al
00000D39  0000              add [eax],al
00000D3B  0000              add [eax],al
00000D3D  0000              add [eax],al
00000D3F  0000              add [eax],al
00000D41  0000              add [eax],al
00000D43  0000              add [eax],al
00000D45  0000              add [eax],al
00000D47  0000              add [eax],al
00000D49  0000              add [eax],al
00000D4B  0000              add [eax],al
00000D4D  0000              add [eax],al
00000D4F  0000              add [eax],al
00000D51  0000              add [eax],al
00000D53  0000              add [eax],al
00000D55  0000              add [eax],al
00000D57  0000              add [eax],al
00000D59  0000              add [eax],al
00000D5B  0000              add [eax],al
00000D5D  0000              add [eax],al
00000D5F  0000              add [eax],al
00000D61  0000              add [eax],al
00000D63  0000              add [eax],al
00000D65  0000              add [eax],al
00000D67  0000              add [eax],al
00000D69  0000              add [eax],al
00000D6B  0000              add [eax],al
00000D6D  0000              add [eax],al
00000D6F  0000              add [eax],al
00000D71  0000              add [eax],al
00000D73  0000              add [eax],al
00000D75  0000              add [eax],al
00000D77  0000              add [eax],al
00000D79  0000              add [eax],al
00000D7B  0000              add [eax],al
00000D7D  0000              add [eax],al
00000D7F  0000              add [eax],al
00000D81  0000              add [eax],al
00000D83  0000              add [eax],al
00000D85  0000              add [eax],al
00000D87  0000              add [eax],al
00000D89  0000              add [eax],al
00000D8B  0000              add [eax],al
00000D8D  0000              add [eax],al
00000D8F  0000              add [eax],al
00000D91  0000              add [eax],al
00000D93  0000              add [eax],al
00000D95  0000              add [eax],al
00000D97  0000              add [eax],al
00000D99  0000              add [eax],al
00000D9B  0000              add [eax],al
00000D9D  0000              add [eax],al
00000D9F  0000              add [eax],al
00000DA1  0000              add [eax],al
00000DA3  0000              add [eax],al
00000DA5  0000              add [eax],al
00000DA7  0000              add [eax],al
00000DA9  0000              add [eax],al
00000DAB  0000              add [eax],al
00000DAD  0000              add [eax],al
00000DAF  0000              add [eax],al
00000DB1  0000              add [eax],al
00000DB3  0000              add [eax],al
00000DB5  0000              add [eax],al
00000DB7  0000              add [eax],al
00000DB9  0000              add [eax],al
00000DBB  0000              add [eax],al
00000DBD  0000              add [eax],al
00000DBF  0000              add [eax],al
00000DC1  0000              add [eax],al
00000DC3  0000              add [eax],al
00000DC5  0000              add [eax],al
00000DC7  0000              add [eax],al
00000DC9  0000              add [eax],al
00000DCB  0000              add [eax],al
00000DCD  0000              add [eax],al
00000DCF  0000              add [eax],al
00000DD1  0000              add [eax],al
00000DD3  0000              add [eax],al
00000DD5  0000              add [eax],al
00000DD7  0000              add [eax],al
00000DD9  0000              add [eax],al
00000DDB  0000              add [eax],al
00000DDD  0000              add [eax],al
00000DDF  0000              add [eax],al
00000DE1  0000              add [eax],al
00000DE3  0000              add [eax],al
00000DE5  0000              add [eax],al
00000DE7  0000              add [eax],al
00000DE9  0000              add [eax],al
00000DEB  0000              add [eax],al
00000DED  0000              add [eax],al
00000DEF  0000              add [eax],al
00000DF1  0000              add [eax],al
00000DF3  0000              add [eax],al
00000DF5  0000              add [eax],al
00000DF7  0000              add [eax],al
00000DF9  0000              add [eax],al
00000DFB  0000              add [eax],al
00000DFD  0000              add [eax],al
00000DFF  0000              add [eax],al
00000E01  0000              add [eax],al
00000E03  0000              add [eax],al
00000E05  0000              add [eax],al
00000E07  0000              add [eax],al
00000E09  0000              add [eax],al
00000E0B  0000              add [eax],al
00000E0D  0000              add [eax],al
00000E0F  0000              add [eax],al
00000E11  0000              add [eax],al
00000E13  0000              add [eax],al
00000E15  0000              add [eax],al
00000E17  0000              add [eax],al
00000E19  0000              add [eax],al
00000E1B  0000              add [eax],al
00000E1D  0000              add [eax],al
00000E1F  0000              add [eax],al
00000E21  0000              add [eax],al
00000E23  0000              add [eax],al
00000E25  0000              add [eax],al
00000E27  0000              add [eax],al
00000E29  0000              add [eax],al
00000E2B  0000              add [eax],al
00000E2D  0000              add [eax],al
00000E2F  0000              add [eax],al
00000E31  0000              add [eax],al
00000E33  0000              add [eax],al
00000E35  0000              add [eax],al
00000E37  0000              add [eax],al
00000E39  0000              add [eax],al
00000E3B  0000              add [eax],al
00000E3D  0000              add [eax],al
00000E3F  0000              add [eax],al
00000E41  0000              add [eax],al
00000E43  0000              add [eax],al
00000E45  0000              add [eax],al
00000E47  0000              add [eax],al
00000E49  0000              add [eax],al
00000E4B  0000              add [eax],al
00000E4D  0000              add [eax],al
00000E4F  0000              add [eax],al
00000E51  0000              add [eax],al
00000E53  0000              add [eax],al
00000E55  0000              add [eax],al
00000E57  0000              add [eax],al
00000E59  0000              add [eax],al
00000E5B  0000              add [eax],al
00000E5D  0000              add [eax],al
00000E5F  0000              add [eax],al
00000E61  0000              add [eax],al
00000E63  0000              add [eax],al
00000E65  0000              add [eax],al
00000E67  0000              add [eax],al
00000E69  0000              add [eax],al
00000E6B  0000              add [eax],al
00000E6D  0000              add [eax],al
00000E6F  0000              add [eax],al
00000E71  0000              add [eax],al
00000E73  0000              add [eax],al
00000E75  0000              add [eax],al
00000E77  0000              add [eax],al
00000E79  0000              add [eax],al
00000E7B  0000              add [eax],al
00000E7D  0000              add [eax],al
00000E7F  0000              add [eax],al
00000E81  0000              add [eax],al
00000E83  0000              add [eax],al
00000E85  0000              add [eax],al
00000E87  0000              add [eax],al
00000E89  0000              add [eax],al
00000E8B  0000              add [eax],al
00000E8D  0000              add [eax],al
00000E8F  0000              add [eax],al
00000E91  0000              add [eax],al
00000E93  0000              add [eax],al
00000E95  0000              add [eax],al
00000E97  0000              add [eax],al
00000E99  0000              add [eax],al
00000E9B  0000              add [eax],al
00000E9D  0000              add [eax],al
00000E9F  0000              add [eax],al
00000EA1  0000              add [eax],al
00000EA3  0000              add [eax],al
00000EA5  0000              add [eax],al
00000EA7  0000              add [eax],al
00000EA9  0000              add [eax],al
00000EAB  0000              add [eax],al
00000EAD  0000              add [eax],al
00000EAF  0000              add [eax],al
00000EB1  0000              add [eax],al
00000EB3  0000              add [eax],al
00000EB5  0000              add [eax],al
00000EB7  0000              add [eax],al
00000EB9  0000              add [eax],al
00000EBB  0000              add [eax],al
00000EBD  0000              add [eax],al
00000EBF  0000              add [eax],al
00000EC1  0000              add [eax],al
00000EC3  0000              add [eax],al
00000EC5  0000              add [eax],al
00000EC7  0000              add [eax],al
00000EC9  0000              add [eax],al
00000ECB  0000              add [eax],al
00000ECD  0000              add [eax],al
00000ECF  0000              add [eax],al
00000ED1  0000              add [eax],al
00000ED3  0000              add [eax],al
00000ED5  0000              add [eax],al
00000ED7  0000              add [eax],al
00000ED9  0000              add [eax],al
00000EDB  0000              add [eax],al
00000EDD  0000              add [eax],al
00000EDF  0000              add [eax],al
00000EE1  0000              add [eax],al
00000EE3  0000              add [eax],al
00000EE5  0000              add [eax],al
00000EE7  0000              add [eax],al
00000EE9  0000              add [eax],al
00000EEB  0000              add [eax],al
00000EED  0000              add [eax],al
00000EEF  0000              add [eax],al
00000EF1  0000              add [eax],al
00000EF3  0000              add [eax],al
00000EF5  0000              add [eax],al
00000EF7  0000              add [eax],al
00000EF9  0000              add [eax],al
00000EFB  0000              add [eax],al
00000EFD  0000              add [eax],al
00000EFF  0000              add [eax],al
00000F01  0000              add [eax],al
00000F03  0000              add [eax],al
00000F05  0000              add [eax],al
00000F07  0000              add [eax],al
00000F09  0000              add [eax],al
00000F0B  0000              add [eax],al
00000F0D  0000              add [eax],al
00000F0F  0000              add [eax],al
00000F11  0000              add [eax],al
00000F13  0000              add [eax],al
00000F15  0000              add [eax],al
00000F17  0000              add [eax],al
00000F19  0000              add [eax],al
00000F1B  0000              add [eax],al
00000F1D  0000              add [eax],al
00000F1F  0000              add [eax],al
00000F21  0000              add [eax],al
00000F23  0000              add [eax],al
00000F25  0000              add [eax],al
00000F27  0000              add [eax],al
00000F29  0000              add [eax],al
00000F2B  0000              add [eax],al
00000F2D  0000              add [eax],al
00000F2F  0000              add [eax],al
00000F31  0000              add [eax],al
00000F33  0000              add [eax],al
00000F35  0000              add [eax],al
00000F37  0000              add [eax],al
00000F39  0000              add [eax],al
00000F3B  0000              add [eax],al
00000F3D  0000              add [eax],al
00000F3F  0000              add [eax],al
00000F41  0000              add [eax],al
00000F43  0000              add [eax],al
00000F45  0000              add [eax],al
00000F47  0000              add [eax],al
00000F49  0000              add [eax],al
00000F4B  0000              add [eax],al
00000F4D  0000              add [eax],al
00000F4F  0000              add [eax],al
00000F51  0000              add [eax],al
00000F53  0000              add [eax],al
00000F55  0000              add [eax],al
00000F57  0000              add [eax],al
00000F59  0000              add [eax],al
00000F5B  0000              add [eax],al
00000F5D  0000              add [eax],al
00000F5F  0000              add [eax],al
00000F61  0000              add [eax],al
00000F63  0000              add [eax],al
00000F65  0000              add [eax],al
00000F67  0000              add [eax],al
00000F69  0000              add [eax],al
00000F6B  0000              add [eax],al
00000F6D  0000              add [eax],al
00000F6F  0000              add [eax],al
00000F71  0000              add [eax],al
00000F73  0000              add [eax],al
00000F75  0000              add [eax],al
00000F77  0000              add [eax],al
00000F79  0000              add [eax],al
00000F7B  0000              add [eax],al
00000F7D  0000              add [eax],al
00000F7F  0000              add [eax],al
00000F81  0000              add [eax],al
00000F83  0000              add [eax],al
00000F85  0000              add [eax],al
00000F87  0000              add [eax],al
00000F89  0000              add [eax],al
00000F8B  0000              add [eax],al
00000F8D  0000              add [eax],al
00000F8F  0000              add [eax],al
00000F91  0000              add [eax],al
00000F93  0000              add [eax],al
00000F95  0000              add [eax],al
00000F97  0000              add [eax],al
00000F99  0000              add [eax],al
00000F9B  0000              add [eax],al
00000F9D  0000              add [eax],al
00000F9F  0000              add [eax],al
00000FA1  0000              add [eax],al
00000FA3  0000              add [eax],al
00000FA5  0000              add [eax],al
00000FA7  0000              add [eax],al
00000FA9  0000              add [eax],al
00000FAB  0000              add [eax],al
00000FAD  0000              add [eax],al
00000FAF  0000              add [eax],al
00000FB1  0000              add [eax],al
00000FB3  0000              add [eax],al
00000FB5  0000              add [eax],al
00000FB7  0000              add [eax],al
00000FB9  0000              add [eax],al
00000FBB  0000              add [eax],al
00000FBD  0000              add [eax],al
00000FBF  0000              add [eax],al
00000FC1  0000              add [eax],al
00000FC3  0000              add [eax],al
00000FC5  0000              add [eax],al
00000FC7  0000              add [eax],al
00000FC9  0000              add [eax],al
00000FCB  0000              add [eax],al
00000FCD  0000              add [eax],al
00000FCF  0000              add [eax],al
00000FD1  0000              add [eax],al
00000FD3  0000              add [eax],al
00000FD5  0000              add [eax],al
00000FD7  0000              add [eax],al
00000FD9  0000              add [eax],al
00000FDB  0000              add [eax],al
00000FDD  0000              add [eax],al
00000FDF  0000              add [eax],al
00000FE1  0000              add [eax],al
00000FE3  0000              add [eax],al
00000FE5  0000              add [eax],al
00000FE7  0000              add [eax],al
00000FE9  0000              add [eax],al
00000FEB  0000              add [eax],al
00000FED  0000              add [eax],al
00000FEF  0000              add [eax],al
00000FF1  0000              add [eax],al
00000FF3  0000              add [eax],al
00000FF5  0000              add [eax],al
00000FF7  0000              add [eax],al
00000FF9  0000              add [eax],al
00000FFB  0000              add [eax],al
00000FFD  0000              add [eax],al
00000FFF  000A              add [edx],cl
00001001  52                push edx
00001002  6561              gs popad
00001004  636865            arpl [eax+0x65],bp
00001007  64204F2D          and [fs:edi+0x2d],cl
0000100B  4C                dec esp
0000100C  61                popad
0000100D  6E                outsb
0000100E  640A00            or al,[fs:eax]
00001011  0000              add [eax],al
00001013  000A              add [edx],cl
00001015  54                push esp
00001016  6869732069        push dword 0x69207369
0000101B  7320              jnc 0x103d
0000101D  61                popad
0000101E  20746573          and [ebp+0x73],dh
00001022  7420              jz 0x1044
00001024  627261            bound esi,[edx+0x61]
00001027  6E                outsb
00001028  636820            arpl [eax+0x20],bp
0000102B  666F              outsw
0000102D  7220              jc 0x104f
0000102F  64657665          gs jna 0x1098
00001033  6C                insb
00001034  6F                outsd
00001035  7069              jo 0x10a0
00001037  6E                outsb
00001038  67206B65          and [bp+di+0x65],ch
0000103C  7962              jns 0x10a0
0000103E  6F                outsd
0000103F  61                popad
00001040  7264              jc 0x10a6
00001042  206675            and [esi+0x75],ah
00001045  6E                outsb
00001046  6374696F          arpl [ecx+ebp*2+0x6f],si
0000104A  6E                outsb
0000104B  61                popad
0000104C  6C                insb
0000104D  6974790A00007465  imul esi,[ecx+edi*2+0xa],dword 0x65740000
00001055  7374              jnc 0x10cb
00001057  310A              xor [edx],ecx
00001059  0000              add [eax],al
0000105B  7465              jz 0x10c2
0000105D  7374              jnc 0x10d3
0000105F  0A00              or al,[eax]
00001061  00746573          add [ebp+0x73],dh
00001065  7432              jz 0x1099
00001067  3A20              cmp ah,[eax]
00001069  780A              js 0x1075
0000106B  0000              add [eax],al
0000106D  0000              add [eax],al
0000106F  004743            add [edi+0x43],al
00001072  43                inc ebx
00001073  3A20              cmp ah,[eax]
00001075  28474E            sub [edi+0x4e],al
00001078  55                push ebp
00001079  2920              sub [eax],esp
0000107B  352E332E30        xor eax,0x302e332e
00001080  0000              add [eax],al
00001082  0000              add [eax],al
00001084  47                inc edi
00001085  43                inc ebx
00001086  43                inc ebx
00001087  3A20              cmp ah,[eax]
00001089  28474E            sub [edi+0x4e],al
0000108C  55                push ebp
0000108D  2920              sub [eax],esp
0000108F  352E332E30        xor eax,0x302e332e
00001094  0000              add [eax],al
00001096  0000              add [eax],al
00001098  47                inc edi
00001099  43                inc ebx
0000109A  43                inc ebx
0000109B  3A20              cmp ah,[eax]
0000109D  28474E            sub [edi+0x4e],al
000010A0  55                push ebp
000010A1  2920              sub [eax],esp
000010A3  352E332E30        xor eax,0x302e332e
000010A8  0000              add [eax],al
000010AA  0000              add [eax],al
000010AC  47                inc edi
000010AD  43                inc ebx
000010AE  43                inc ebx
000010AF  3A20              cmp ah,[eax]
000010B1  28474E            sub [edi+0x4e],al
000010B4  55                push ebp
000010B5  2920              sub [eax],esp
000010B7  352E332E30        xor eax,0x302e332e
000010BC  0000              add [eax],al
000010BE  0000              add [eax],al
000010C0  0000              add [eax],al
000010C2  0000              add [eax],al
000010C4  0000              add [eax],al
000010C6  0000              add [eax],al
000010C8  0000              add [eax],al
000010CA  0000              add [eax],al
000010CC  0000              add [eax],al
000010CE  0000              add [eax],al
000010D0  0000              add [eax],al
000010D2  0000              add [eax],al
000010D4  0000              add [eax],al
000010D6  0000              add [eax],al
000010D8  0000              add [eax],al
000010DA  0000              add [eax],al
000010DC  0000              add [eax],al
000010DE  0000              add [eax],al
000010E0  0000              add [eax],al
000010E2  0000              add [eax],al
000010E4  0000              add [eax],al
000010E6  0000              add [eax],al
000010E8  0000              add [eax],al
000010EA  0000              add [eax],al
000010EC  0000              add [eax],al
000010EE  0000              add [eax],al
000010F0  0000              add [eax],al
000010F2  0000              add [eax],al
000010F4  0000              add [eax],al
000010F6  0000              add [eax],al
000010F8  0000              add [eax],al
000010FA  0000              add [eax],al
000010FC  0000              add [eax],al
000010FE  0000              add [eax],al
00001100  0000              add [eax],al
00001102  0000              add [eax],al
00001104  0000              add [eax],al
00001106  0000              add [eax],al
00001108  0000              add [eax],al
0000110A  0000              add [eax],al
0000110C  0000              add [eax],al
0000110E  0000              add [eax],al
00001110  0000              add [eax],al
00001112  0000              add [eax],al
00001114  0000              add [eax],al
00001116  0000              add [eax],al
00001118  0000              add [eax],al
0000111A  0000              add [eax],al
0000111C  0000              add [eax],al
0000111E  0000              add [eax],al
00001120  0000              add [eax],al
00001122  0000              add [eax],al
00001124  0000              add [eax],al
00001126  0000              add [eax],al
00001128  0000              add [eax],al
0000112A  0000              add [eax],al
0000112C  0000              add [eax],al
0000112E  0000              add [eax],al
00001130  0000              add [eax],al
00001132  0000              add [eax],al
00001134  0000              add [eax],al
00001136  0000              add [eax],al
00001138  0000              add [eax],al
0000113A  0000              add [eax],al
0000113C  0000              add [eax],al
0000113E  0000              add [eax],al
00001140  0000              add [eax],al
00001142  0000              add [eax],al
00001144  0000              add [eax],al
00001146  0000              add [eax],al
00001148  0000              add [eax],al
0000114A  0000              add [eax],al
0000114C  0000              add [eax],al
0000114E  0000              add [eax],al
00001150  0000              add [eax],al
00001152  0000              add [eax],al
00001154  0000              add [eax],al
00001156  0000              add [eax],al
00001158  0000              add [eax],al
0000115A  0000              add [eax],al
0000115C  0000              add [eax],al
0000115E  0000              add [eax],al
00001160  0000              add [eax],al
00001162  0000              add [eax],al
00001164  0000              add [eax],al
00001166  0000              add [eax],al
00001168  0000              add [eax],al
0000116A  0000              add [eax],al
0000116C  0000              add [eax],al
0000116E  0000              add [eax],al
00001170  0000              add [eax],al
00001172  0000              add [eax],al
00001174  0000              add [eax],al
00001176  0000              add [eax],al
00001178  0000              add [eax],al
0000117A  0000              add [eax],al
0000117C  0000              add [eax],al
0000117E  0000              add [eax],al
00001180  0000              add [eax],al
00001182  0000              add [eax],al
00001184  0000              add [eax],al
00001186  0000              add [eax],al
00001188  0000              add [eax],al
0000118A  0000              add [eax],al
0000118C  0000              add [eax],al
0000118E  0000              add [eax],al
00001190  0000              add [eax],al
00001192  0000              add [eax],al
00001194  0000              add [eax],al
00001196  0000              add [eax],al
00001198  0000              add [eax],al
0000119A  0000              add [eax],al
0000119C  0000              add [eax],al
0000119E  0000              add [eax],al
000011A0  0000              add [eax],al
000011A2  0000              add [eax],al
000011A4  0000              add [eax],al
000011A6  0000              add [eax],al
000011A8  0000              add [eax],al
000011AA  0000              add [eax],al
000011AC  0000              add [eax],al
000011AE  0000              add [eax],al
000011B0  0000              add [eax],al
000011B2  0000              add [eax],al
000011B4  0000              add [eax],al
000011B6  0000              add [eax],al
000011B8  0000              add [eax],al
000011BA  0000              add [eax],al
000011BC  0000              add [eax],al
000011BE  0000              add [eax],al
000011C0  0000              add [eax],al
000011C2  0000              add [eax],al
000011C4  0000              add [eax],al
000011C6  0000              add [eax],al
000011C8  0000              add [eax],al
000011CA  0000              add [eax],al
000011CC  0000              add [eax],al
000011CE  0000              add [eax],al
000011D0  0000              add [eax],al
000011D2  0000              add [eax],al
000011D4  0000              add [eax],al
000011D6  0000              add [eax],al
000011D8  0000              add [eax],al
000011DA  0000              add [eax],al
000011DC  0000              add [eax],al
000011DE  0000              add [eax],al
000011E0  0000              add [eax],al
000011E2  0000              add [eax],al
000011E4  0000              add [eax],al
000011E6  0000              add [eax],al
000011E8  0000              add [eax],al
000011EA  0000              add [eax],al
000011EC  0000              add [eax],al
000011EE  0000              add [eax],al
000011F0  0000              add [eax],al
000011F2  0000              add [eax],al
000011F4  0000              add [eax],al
000011F6  0000              add [eax],al
000011F8  0000              add [eax],al
000011FA  0000              add [eax],al
000011FC  0000              add [eax],al
000011FE  0000              add [eax],al
00001200  0000              add [eax],al
00001202  0000              add [eax],al
00001204  0000              add [eax],al
00001206  0000              add [eax],al
00001208  0000              add [eax],al
0000120A  0000              add [eax],al
0000120C  0000              add [eax],al
0000120E  0000              add [eax],al
00001210  0000              add [eax],al
00001212  0000              add [eax],al
00001214  0000              add [eax],al
00001216  0000              add [eax],al
00001218  0000              add [eax],al
0000121A  0000              add [eax],al
0000121C  0000              add [eax],al
0000121E  0000              add [eax],al
00001220  0000              add [eax],al
00001222  0000              add [eax],al
00001224  0000              add [eax],al
00001226  0000              add [eax],al
00001228  0000              add [eax],al
0000122A  0000              add [eax],al
0000122C  0000              add [eax],al
0000122E  0000              add [eax],al
00001230  0000              add [eax],al
00001232  0000              add [eax],al
00001234  0000              add [eax],al
00001236  0000              add [eax],al
00001238  0000              add [eax],al
0000123A  0000              add [eax],al
0000123C  0000              add [eax],al
0000123E  0000              add [eax],al
00001240  0000              add [eax],al
00001242  0000              add [eax],al
00001244  0000              add [eax],al
00001246  0000              add [eax],al
00001248  0000              add [eax],al
0000124A  0000              add [eax],al
0000124C  0000              add [eax],al
0000124E  0000              add [eax],al
00001250  0000              add [eax],al
00001252  0000              add [eax],al
00001254  0000              add [eax],al
00001256  0000              add [eax],al
00001258  0000              add [eax],al
0000125A  0000              add [eax],al
0000125C  0000              add [eax],al
0000125E  0000              add [eax],al
00001260  0000              add [eax],al
00001262  0000              add [eax],al
00001264  0000              add [eax],al
00001266  0000              add [eax],al
00001268  0000              add [eax],al
0000126A  0000              add [eax],al
0000126C  0000              add [eax],al
0000126E  0000              add [eax],al
00001270  0000              add [eax],al
00001272  0000              add [eax],al
00001274  0000              add [eax],al
00001276  0000              add [eax],al
00001278  0000              add [eax],al
0000127A  0000              add [eax],al
0000127C  0000              add [eax],al
0000127E  0000              add [eax],al
00001280  0000              add [eax],al
00001282  0000              add [eax],al
00001284  0000              add [eax],al
00001286  0000              add [eax],al
00001288  0000              add [eax],al
0000128A  0000              add [eax],al
0000128C  0000              add [eax],al
0000128E  0000              add [eax],al
00001290  0000              add [eax],al
00001292  0000              add [eax],al
00001294  0000              add [eax],al
00001296  0000              add [eax],al
00001298  0000              add [eax],al
0000129A  0000              add [eax],al
0000129C  0000              add [eax],al
0000129E  0000              add [eax],al
000012A0  0000              add [eax],al
000012A2  0000              add [eax],al
000012A4  0000              add [eax],al
000012A6  0000              add [eax],al
000012A8  0000              add [eax],al
000012AA  0000              add [eax],al
000012AC  0000              add [eax],al
000012AE  0000              add [eax],al
000012B0  0000              add [eax],al
000012B2  0000              add [eax],al
000012B4  0000              add [eax],al
000012B6  0000              add [eax],al
000012B8  0000              add [eax],al
000012BA  0000              add [eax],al
000012BC  0000              add [eax],al
000012BE  0000              add [eax],al
000012C0  0000              add [eax],al
000012C2  0000              add [eax],al
000012C4  0000              add [eax],al
000012C6  0000              add [eax],al
000012C8  0000              add [eax],al
000012CA  0000              add [eax],al
000012CC  0000              add [eax],al
000012CE  0000              add [eax],al
000012D0  0000              add [eax],al
000012D2  0000              add [eax],al
000012D4  0000              add [eax],al
000012D6  0000              add [eax],al
000012D8  0000              add [eax],al
000012DA  0000              add [eax],al
000012DC  0000              add [eax],al
000012DE  0000              add [eax],al
000012E0  0000              add [eax],al
000012E2  0000              add [eax],al
000012E4  0000              add [eax],al
000012E6  0000              add [eax],al
000012E8  0000              add [eax],al
000012EA  0000              add [eax],al
000012EC  0000              add [eax],al
000012EE  0000              add [eax],al
000012F0  0000              add [eax],al
000012F2  0000              add [eax],al
000012F4  0000              add [eax],al
000012F6  0000              add [eax],al
000012F8  0000              add [eax],al
000012FA  0000              add [eax],al
000012FC  0000              add [eax],al
000012FE  0000              add [eax],al
00001300  0000              add [eax],al
00001302  0000              add [eax],al
00001304  0000              add [eax],al
00001306  0000              add [eax],al
00001308  0000              add [eax],al
0000130A  0000              add [eax],al
0000130C  0000              add [eax],al
0000130E  0000              add [eax],al
00001310  0000              add [eax],al
00001312  0000              add [eax],al
00001314  0000              add [eax],al
00001316  0000              add [eax],al
00001318  0000              add [eax],al
0000131A  0000              add [eax],al
0000131C  0000              add [eax],al
0000131E  0000              add [eax],al
00001320  0000              add [eax],al
00001322  0000              add [eax],al
00001324  0000              add [eax],al
00001326  0000              add [eax],al
00001328  0000              add [eax],al
0000132A  0000              add [eax],al
0000132C  0000              add [eax],al
0000132E  0000              add [eax],al
00001330  0000              add [eax],al
00001332  0000              add [eax],al
00001334  0000              add [eax],al
00001336  0000              add [eax],al
00001338  0000              add [eax],al
0000133A  0000              add [eax],al
0000133C  0000              add [eax],al
0000133E  0000              add [eax],al
00001340  0000              add [eax],al
00001342  0000              add [eax],al
00001344  0000              add [eax],al
00001346  0000              add [eax],al
00001348  0000              add [eax],al
0000134A  0000              add [eax],al
0000134C  0000              add [eax],al
0000134E  0000              add [eax],al
00001350  0000              add [eax],al
00001352  0000              add [eax],al
00001354  0000              add [eax],al
00001356  0000              add [eax],al
00001358  0000              add [eax],al
0000135A  0000              add [eax],al
0000135C  0000              add [eax],al
0000135E  0000              add [eax],al
00001360  0000              add [eax],al
00001362  0000              add [eax],al
00001364  0000              add [eax],al
00001366  0000              add [eax],al
00001368  0000              add [eax],al
0000136A  0000              add [eax],al
0000136C  0000              add [eax],al
0000136E  0000              add [eax],al
00001370  0000              add [eax],al
00001372  0000              add [eax],al
00001374  0000              add [eax],al
00001376  0000              add [eax],al
00001378  0000              add [eax],al
0000137A  0000              add [eax],al
0000137C  0000              add [eax],al
0000137E  0000              add [eax],al
00001380  0000              add [eax],al
00001382  0000              add [eax],al
00001384  0000              add [eax],al
00001386  0000              add [eax],al
00001388  0000              add [eax],al
0000138A  0000              add [eax],al
0000138C  0000              add [eax],al
0000138E  0000              add [eax],al
00001390  0000              add [eax],al
00001392  0000              add [eax],al
00001394  0000              add [eax],al
00001396  0000              add [eax],al
00001398  0000              add [eax],al
0000139A  0000              add [eax],al
0000139C  0000              add [eax],al
0000139E  0000              add [eax],al
000013A0  0000              add [eax],al
000013A2  0000              add [eax],al
000013A4  0000              add [eax],al
000013A6  0000              add [eax],al
000013A8  0000              add [eax],al
000013AA  0000              add [eax],al
000013AC  0000              add [eax],al
000013AE  0000              add [eax],al
000013B0  0000              add [eax],al
000013B2  0000              add [eax],al
000013B4  0000              add [eax],al
000013B6  0000              add [eax],al
000013B8  0000              add [eax],al
000013BA  0000              add [eax],al
000013BC  0000              add [eax],al
000013BE  0000              add [eax],al
000013C0  0000              add [eax],al
000013C2  0000              add [eax],al
000013C4  0000              add [eax],al
000013C6  0000              add [eax],al
000013C8  0000              add [eax],al
000013CA  0000              add [eax],al
000013CC  0000              add [eax],al
000013CE  0000              add [eax],al
000013D0  0000              add [eax],al
000013D2  0000              add [eax],al
000013D4  0000              add [eax],al
000013D6  0000              add [eax],al
000013D8  0000              add [eax],al
000013DA  0000              add [eax],al
000013DC  0000              add [eax],al
000013DE  0000              add [eax],al
000013E0  0000              add [eax],al
000013E2  0000              add [eax],al
000013E4  0000              add [eax],al
000013E6  0000              add [eax],al
000013E8  0000              add [eax],al
000013EA  0000              add [eax],al
000013EC  0000              add [eax],al
000013EE  0000              add [eax],al
000013F0  0000              add [eax],al
000013F2  0000              add [eax],al
000013F4  0000              add [eax],al
000013F6  0000              add [eax],al
000013F8  0000              add [eax],al
000013FA  0000              add [eax],al
000013FC  0000              add [eax],al
000013FE  0000              add [eax],al
00001400  0000              add [eax],al
00001402  0000              add [eax],al
00001404  0000              add [eax],al
00001406  0000              add [eax],al
00001408  0000              add [eax],al
0000140A  0000              add [eax],al
0000140C  0000              add [eax],al
0000140E  0000              add [eax],al
00001410  0000              add [eax],al
00001412  0000              add [eax],al
00001414  0000              add [eax],al
00001416  0000              add [eax],al
00001418  0000              add [eax],al
0000141A  0000              add [eax],al
0000141C  0000              add [eax],al
0000141E  0000              add [eax],al
00001420  0000              add [eax],al
00001422  0000              add [eax],al
00001424  0000              add [eax],al
00001426  0000              add [eax],al
00001428  0000              add [eax],al
0000142A  0000              add [eax],al
0000142C  0000              add [eax],al
0000142E  0000              add [eax],al
00001430  0000              add [eax],al
00001432  0000              add [eax],al
00001434  0000              add [eax],al
00001436  0000              add [eax],al
00001438  0000              add [eax],al
0000143A  0000              add [eax],al
0000143C  0000              add [eax],al
0000143E  0000              add [eax],al
00001440  0000              add [eax],al
00001442  0000              add [eax],al
00001444  0000              add [eax],al
00001446  0000              add [eax],al
00001448  0000              add [eax],al
0000144A  0000              add [eax],al
0000144C  0000              add [eax],al
0000144E  0000              add [eax],al
00001450  0000              add [eax],al
00001452  0000              add [eax],al
00001454  0000              add [eax],al
00001456  0000              add [eax],al
00001458  0000              add [eax],al
0000145A  0000              add [eax],al
0000145C  0000              add [eax],al
0000145E  0000              add [eax],al
00001460  0000              add [eax],al
00001462  0000              add [eax],al
00001464  0000              add [eax],al
00001466  0000              add [eax],al
00001468  0000              add [eax],al
0000146A  0000              add [eax],al
0000146C  0000              add [eax],al
0000146E  0000              add [eax],al
00001470  0000              add [eax],al
00001472  0000              add [eax],al
00001474  0000              add [eax],al
00001476  0000              add [eax],al
00001478  0000              add [eax],al
0000147A  0000              add [eax],al
0000147C  0000              add [eax],al
0000147E  0000              add [eax],al
00001480  0000              add [eax],al
00001482  0000              add [eax],al
00001484  0000              add [eax],al
00001486  0000              add [eax],al
00001488  0000              add [eax],al
0000148A  0000              add [eax],al
0000148C  0000              add [eax],al
0000148E  0000              add [eax],al
00001490  0000              add [eax],al
00001492  0000              add [eax],al
00001494  0000              add [eax],al
00001496  0000              add [eax],al
00001498  0000              add [eax],al
0000149A  0000              add [eax],al
0000149C  0000              add [eax],al
0000149E  0000              add [eax],al
000014A0  0000              add [eax],al
000014A2  0000              add [eax],al
000014A4  0000              add [eax],al
000014A6  0000              add [eax],al
000014A8  0000              add [eax],al
000014AA  0000              add [eax],al
000014AC  0000              add [eax],al
000014AE  0000              add [eax],al
000014B0  0000              add [eax],al
000014B2  0000              add [eax],al
000014B4  0000              add [eax],al
000014B6  0000              add [eax],al
000014B8  0000              add [eax],al
000014BA  0000              add [eax],al
000014BC  0000              add [eax],al
000014BE  0000              add [eax],al
000014C0  0000              add [eax],al
000014C2  0000              add [eax],al
000014C4  0000              add [eax],al
000014C6  0000              add [eax],al
000014C8  0000              add [eax],al
000014CA  0000              add [eax],al
000014CC  0000              add [eax],al
000014CE  0000              add [eax],al
000014D0  0000              add [eax],al
000014D2  0000              add [eax],al
000014D4  0000              add [eax],al
000014D6  0000              add [eax],al
000014D8  0000              add [eax],al
000014DA  0000              add [eax],al
000014DC  0000              add [eax],al
000014DE  0000              add [eax],al
000014E0  0000              add [eax],al
000014E2  0000              add [eax],al
000014E4  0000              add [eax],al
000014E6  0000              add [eax],al
000014E8  0000              add [eax],al
000014EA  0000              add [eax],al
000014EC  0000              add [eax],al
000014EE  0000              add [eax],al
000014F0  0000              add [eax],al
000014F2  0000              add [eax],al
000014F4  0000              add [eax],al
000014F6  0000              add [eax],al
000014F8  0000              add [eax],al
000014FA  0000              add [eax],al
000014FC  0000              add [eax],al
000014FE  0000              add [eax],al
00001500  0000              add [eax],al
00001502  0000              add [eax],al
00001504  0000              add [eax],al
00001506  0000              add [eax],al
00001508  0000              add [eax],al
0000150A  0000              add [eax],al
0000150C  0000              add [eax],al
0000150E  0000              add [eax],al
00001510  0000              add [eax],al
00001512  0000              add [eax],al
00001514  0000              add [eax],al
00001516  0000              add [eax],al
00001518  0000              add [eax],al
0000151A  0000              add [eax],al
0000151C  0000              add [eax],al
0000151E  0000              add [eax],al
00001520  0000              add [eax],al
00001522  0000              add [eax],al
00001524  0000              add [eax],al
00001526  0000              add [eax],al
00001528  0000              add [eax],al
0000152A  0000              add [eax],al
0000152C  0000              add [eax],al
0000152E  0000              add [eax],al
00001530  0000              add [eax],al
00001532  0000              add [eax],al
00001534  0000              add [eax],al
00001536  0000              add [eax],al
00001538  0000              add [eax],al
0000153A  0000              add [eax],al
0000153C  0000              add [eax],al
0000153E  0000              add [eax],al
00001540  0000              add [eax],al
00001542  0000              add [eax],al
00001544  0000              add [eax],al
00001546  0000              add [eax],al
00001548  0000              add [eax],al
0000154A  0000              add [eax],al
0000154C  0000              add [eax],al
0000154E  0000              add [eax],al
00001550  0000              add [eax],al
00001552  0000              add [eax],al
00001554  0000              add [eax],al
00001556  0000              add [eax],al
00001558  0000              add [eax],al
0000155A  0000              add [eax],al
0000155C  0000              add [eax],al
0000155E  0000              add [eax],al
00001560  0000              add [eax],al
00001562  0000              add [eax],al
00001564  0000              add [eax],al
00001566  0000              add [eax],al
00001568  0000              add [eax],al
0000156A  0000              add [eax],al
0000156C  0000              add [eax],al
0000156E  0000              add [eax],al
00001570  0000              add [eax],al
00001572  0000              add [eax],al
00001574  0000              add [eax],al
00001576  0000              add [eax],al
00001578  0000              add [eax],al
0000157A  0000              add [eax],al
0000157C  0000              add [eax],al
0000157E  0000              add [eax],al
00001580  0000              add [eax],al
00001582  0000              add [eax],al
00001584  0000              add [eax],al
00001586  0000              add [eax],al
00001588  0000              add [eax],al
0000158A  0000              add [eax],al
0000158C  0000              add [eax],al
0000158E  0000              add [eax],al
00001590  0000              add [eax],al
00001592  0000              add [eax],al
00001594  0000              add [eax],al
00001596  0000              add [eax],al
00001598  0000              add [eax],al
0000159A  0000              add [eax],al
0000159C  0000              add [eax],al
0000159E  0000              add [eax],al
000015A0  0000              add [eax],al
000015A2  0000              add [eax],al
000015A4  0000              add [eax],al
000015A6  0000              add [eax],al
000015A8  0000              add [eax],al
000015AA  0000              add [eax],al
000015AC  0000              add [eax],al
000015AE  0000              add [eax],al
000015B0  0000              add [eax],al
000015B2  0000              add [eax],al
000015B4  0000              add [eax],al
000015B6  0000              add [eax],al
000015B8  0000              add [eax],al
000015BA  0000              add [eax],al
000015BC  0000              add [eax],al
000015BE  0000              add [eax],al
000015C0  0000              add [eax],al
000015C2  0000              add [eax],al
000015C4  0000              add [eax],al
000015C6  0000              add [eax],al
000015C8  0000              add [eax],al
000015CA  0000              add [eax],al
000015CC  0000              add [eax],al
000015CE  0000              add [eax],al
000015D0  0000              add [eax],al
000015D2  0000              add [eax],al
000015D4  0000              add [eax],al
000015D6  0000              add [eax],al
000015D8  0000              add [eax],al
000015DA  0000              add [eax],al
000015DC  0000              add [eax],al
000015DE  0000              add [eax],al
000015E0  0000              add [eax],al
000015E2  0000              add [eax],al
000015E4  0000              add [eax],al
000015E6  0000              add [eax],al
000015E8  0000              add [eax],al
000015EA  0000              add [eax],al
000015EC  0000              add [eax],al
000015EE  0000              add [eax],al
000015F0  0000              add [eax],al
000015F2  0000              add [eax],al
000015F4  0000              add [eax],al
000015F6  0000              add [eax],al
000015F8  0000              add [eax],al
000015FA  0000              add [eax],al
000015FC  0000              add [eax],al
000015FE  0000              add [eax],al
00001600  0000              add [eax],al
00001602  0000              add [eax],al
00001604  0000              add [eax],al
00001606  0000              add [eax],al
00001608  0000              add [eax],al
0000160A  0000              add [eax],al
0000160C  0000              add [eax],al
0000160E  0000              add [eax],al
00001610  0000              add [eax],al
00001612  0000              add [eax],al
00001614  0000              add [eax],al
00001616  0000              add [eax],al
00001618  0000              add [eax],al
0000161A  0000              add [eax],al
0000161C  0000              add [eax],al
0000161E  0000              add [eax],al
00001620  0000              add [eax],al
00001622  0000              add [eax],al
00001624  0000              add [eax],al
00001626  0000              add [eax],al
00001628  0000              add [eax],al
0000162A  0000              add [eax],al
0000162C  0000              add [eax],al
0000162E  0000              add [eax],al
00001630  0000              add [eax],al
00001632  0000              add [eax],al
00001634  0000              add [eax],al
00001636  0000              add [eax],al
00001638  0000              add [eax],al
0000163A  0000              add [eax],al
0000163C  0000              add [eax],al
0000163E  0000              add [eax],al
00001640  0000              add [eax],al
00001642  0000              add [eax],al
00001644  0000              add [eax],al
00001646  0000              add [eax],al
00001648  0000              add [eax],al
0000164A  0000              add [eax],al
0000164C  0000              add [eax],al
0000164E  0000              add [eax],al
00001650  0000              add [eax],al
00001652  0000              add [eax],al
00001654  0000              add [eax],al
00001656  0000              add [eax],al
00001658  0000              add [eax],al
0000165A  0000              add [eax],al
0000165C  0000              add [eax],al
0000165E  0000              add [eax],al
00001660  0000              add [eax],al
00001662  0000              add [eax],al
00001664  0000              add [eax],al
00001666  0000              add [eax],al
00001668  0000              add [eax],al
0000166A  0000              add [eax],al
0000166C  0000              add [eax],al
0000166E  0000              add [eax],al
00001670  0000              add [eax],al
00001672  0000              add [eax],al
00001674  0000              add [eax],al
00001676  0000              add [eax],al
00001678  0000              add [eax],al
0000167A  0000              add [eax],al
0000167C  0000              add [eax],al
0000167E  0000              add [eax],al
00001680  0000              add [eax],al
00001682  0000              add [eax],al
00001684  0000              add [eax],al
00001686  0000              add [eax],al
00001688  0000              add [eax],al
0000168A  0000              add [eax],al
0000168C  0000              add [eax],al
0000168E  0000              add [eax],al
00001690  0000              add [eax],al
00001692  0000              add [eax],al
00001694  0000              add [eax],al
00001696  0000              add [eax],al
00001698  0000              add [eax],al
0000169A  0000              add [eax],al
0000169C  0000              add [eax],al
0000169E  0000              add [eax],al
000016A0  0000              add [eax],al
000016A2  0000              add [eax],al
000016A4  0000              add [eax],al
000016A6  0000              add [eax],al
000016A8  0000              add [eax],al
000016AA  0000              add [eax],al
000016AC  0000              add [eax],al
000016AE  0000              add [eax],al
000016B0  0000              add [eax],al
000016B2  0000              add [eax],al
000016B4  0000              add [eax],al
000016B6  0000              add [eax],al
000016B8  0000              add [eax],al
000016BA  0000              add [eax],al
000016BC  0000              add [eax],al
000016BE  0000              add [eax],al
000016C0  0000              add [eax],al
000016C2  0000              add [eax],al
000016C4  0000              add [eax],al
000016C6  0000              add [eax],al
000016C8  0000              add [eax],al
000016CA  0000              add [eax],al
000016CC  0000              add [eax],al
000016CE  0000              add [eax],al
000016D0  0000              add [eax],al
000016D2  0000              add [eax],al
000016D4  0000              add [eax],al
000016D6  0000              add [eax],al
000016D8  0000              add [eax],al
000016DA  0000              add [eax],al
000016DC  0000              add [eax],al
000016DE  0000              add [eax],al
000016E0  0000              add [eax],al
000016E2  0000              add [eax],al
000016E4  0000              add [eax],al
000016E6  0000              add [eax],al
000016E8  0000              add [eax],al
000016EA  0000              add [eax],al
000016EC  0000              add [eax],al
000016EE  0000              add [eax],al
000016F0  0000              add [eax],al
000016F2  0000              add [eax],al
000016F4  0000              add [eax],al
000016F6  0000              add [eax],al
000016F8  0000              add [eax],al
000016FA  0000              add [eax],al
000016FC  0000              add [eax],al
000016FE  0000              add [eax],al
00001700  0000              add [eax],al
00001702  0000              add [eax],al
00001704  0000              add [eax],al
00001706  0000              add [eax],al
00001708  0000              add [eax],al
0000170A  0000              add [eax],al
0000170C  0000              add [eax],al
0000170E  0000              add [eax],al
00001710  0000              add [eax],al
00001712  0000              add [eax],al
00001714  0000              add [eax],al
00001716  0000              add [eax],al
00001718  0000              add [eax],al
0000171A  0000              add [eax],al
0000171C  0000              add [eax],al
0000171E  0000              add [eax],al
00001720  0000              add [eax],al
00001722  0000              add [eax],al
00001724  0000              add [eax],al
00001726  0000              add [eax],al
00001728  0000              add [eax],al
0000172A  0000              add [eax],al
0000172C  0000              add [eax],al
0000172E  0000              add [eax],al
00001730  0000              add [eax],al
00001732  0000              add [eax],al
00001734  0000              add [eax],al
00001736  0000              add [eax],al
00001738  0000              add [eax],al
0000173A  0000              add [eax],al
0000173C  0000              add [eax],al
0000173E  0000              add [eax],al
00001740  0000              add [eax],al
00001742  0000              add [eax],al
00001744  0000              add [eax],al
00001746  0000              add [eax],al
00001748  0000              add [eax],al
0000174A  0000              add [eax],al
0000174C  0000              add [eax],al
0000174E  0000              add [eax],al
00001750  0000              add [eax],al
00001752  0000              add [eax],al
00001754  0000              add [eax],al
00001756  0000              add [eax],al
00001758  0000              add [eax],al
0000175A  0000              add [eax],al
0000175C  0000              add [eax],al
0000175E  0000              add [eax],al
00001760  0000              add [eax],al
00001762  0000              add [eax],al
00001764  0000              add [eax],al
00001766  0000              add [eax],al
00001768  0000              add [eax],al
0000176A  0000              add [eax],al
0000176C  0000              add [eax],al
0000176E  0000              add [eax],al
00001770  0000              add [eax],al
00001772  0000              add [eax],al
00001774  0000              add [eax],al
00001776  0000              add [eax],al
00001778  0000              add [eax],al
0000177A  0000              add [eax],al
0000177C  0000              add [eax],al
0000177E  0000              add [eax],al
00001780  0000              add [eax],al
00001782  0000              add [eax],al
00001784  0000              add [eax],al
00001786  0000              add [eax],al
00001788  0000              add [eax],al
0000178A  0000              add [eax],al
0000178C  0000              add [eax],al
0000178E  0000              add [eax],al
00001790  0000              add [eax],al
00001792  0000              add [eax],al
00001794  0000              add [eax],al
00001796  0000              add [eax],al
00001798  0000              add [eax],al
0000179A  0000              add [eax],al
0000179C  0000              add [eax],al
0000179E  0000              add [eax],al
000017A0  0000              add [eax],al
000017A2  0000              add [eax],al
000017A4  0000              add [eax],al
000017A6  0000              add [eax],al
000017A8  0000              add [eax],al
000017AA  0000              add [eax],al
000017AC  0000              add [eax],al
000017AE  0000              add [eax],al
000017B0  0000              add [eax],al
000017B2  0000              add [eax],al
000017B4  0000              add [eax],al
000017B6  0000              add [eax],al
000017B8  0000              add [eax],al
000017BA  0000              add [eax],al
000017BC  0000              add [eax],al
000017BE  0000              add [eax],al
000017C0  0000              add [eax],al
000017C2  0000              add [eax],al
000017C4  0000              add [eax],al
000017C6  0000              add [eax],al
000017C8  0000              add [eax],al
000017CA  0000              add [eax],al
000017CC  0000              add [eax],al
000017CE  0000              add [eax],al
000017D0  0000              add [eax],al
000017D2  0000              add [eax],al
000017D4  0000              add [eax],al
000017D6  0000              add [eax],al
000017D8  0000              add [eax],al
000017DA  0000              add [eax],al
000017DC  0000              add [eax],al
000017DE  0000              add [eax],al
000017E0  0000              add [eax],al
000017E2  0000              add [eax],al
000017E4  0000              add [eax],al
000017E6  0000              add [eax],al
000017E8  0000              add [eax],al
000017EA  0000              add [eax],al
000017EC  0000              add [eax],al
000017EE  0000              add [eax],al
000017F0  0000              add [eax],al
000017F2  0000              add [eax],al
000017F4  0000              add [eax],al
000017F6  0000              add [eax],al
000017F8  0000              add [eax],al
000017FA  0000              add [eax],al
000017FC  0000              add [eax],al
000017FE  0000              add [eax],al
00001800  0000              add [eax],al
00001802  0000              add [eax],al
00001804  0000              add [eax],al
00001806  0000              add [eax],al
00001808  0000              add [eax],al
0000180A  0000              add [eax],al
0000180C  0000              add [eax],al
0000180E  0000              add [eax],al
00001810  0000              add [eax],al
00001812  0000              add [eax],al
00001814  0000              add [eax],al
00001816  0000              add [eax],al
00001818  0000              add [eax],al
0000181A  0000              add [eax],al
0000181C  0000              add [eax],al
0000181E  0000              add [eax],al
00001820  0000              add [eax],al
00001822  0000              add [eax],al
00001824  0000              add [eax],al
00001826  0000              add [eax],al
00001828  0000              add [eax],al
0000182A  0000              add [eax],al
0000182C  0000              add [eax],al
0000182E  0000              add [eax],al
00001830  0000              add [eax],al
00001832  0000              add [eax],al
00001834  0000              add [eax],al
00001836  0000              add [eax],al
00001838  0000              add [eax],al
0000183A  0000              add [eax],al
0000183C  0000              add [eax],al
0000183E  0000              add [eax],al
00001840  0000              add [eax],al
00001842  0000              add [eax],al
00001844  0000              add [eax],al
00001846  0000              add [eax],al
00001848  0000              add [eax],al
0000184A  0000              add [eax],al
0000184C  0000              add [eax],al
0000184E  0000              add [eax],al
00001850  0000              add [eax],al
00001852  0000              add [eax],al
00001854  0000              add [eax],al
00001856  0000              add [eax],al
00001858  0000              add [eax],al
0000185A  0000              add [eax],al
0000185C  0000              add [eax],al
0000185E  0000              add [eax],al
00001860  0000              add [eax],al
00001862  0000              add [eax],al
00001864  0000              add [eax],al
00001866  0000              add [eax],al
00001868  0000              add [eax],al
0000186A  0000              add [eax],al
0000186C  0000              add [eax],al
0000186E  0000              add [eax],al
00001870  0000              add [eax],al
00001872  0000              add [eax],al
00001874  0000              add [eax],al
00001876  0000              add [eax],al
00001878  0000              add [eax],al
0000187A  0000              add [eax],al
0000187C  0000              add [eax],al
0000187E  0000              add [eax],al
00001880  0000              add [eax],al
00001882  0000              add [eax],al
00001884  0000              add [eax],al
00001886  0000              add [eax],al
00001888  0000              add [eax],al
0000188A  0000              add [eax],al
0000188C  0000              add [eax],al
0000188E  0000              add [eax],al
00001890  0000              add [eax],al
00001892  0000              add [eax],al
00001894  0000              add [eax],al
00001896  0000              add [eax],al
00001898  0000              add [eax],al
0000189A  0000              add [eax],al
0000189C  0000              add [eax],al
0000189E  0000              add [eax],al
000018A0  0000              add [eax],al
000018A2  0000              add [eax],al
000018A4  0000              add [eax],al
000018A6  0000              add [eax],al
000018A8  0000              add [eax],al
000018AA  0000              add [eax],al
000018AC  0000              add [eax],al
000018AE  0000              add [eax],al
000018B0  0000              add [eax],al
000018B2  0000              add [eax],al
000018B4  0000              add [eax],al
000018B6  0000              add [eax],al
000018B8  0000              add [eax],al
000018BA  0000              add [eax],al
000018BC  0000              add [eax],al
000018BE  0000              add [eax],al
000018C0  0000              add [eax],al
000018C2  0000              add [eax],al
000018C4  0000              add [eax],al
000018C6  0000              add [eax],al
000018C8  0000              add [eax],al
000018CA  0000              add [eax],al
000018CC  0000              add [eax],al
000018CE  0000              add [eax],al
000018D0  0000              add [eax],al
000018D2  0000              add [eax],al
000018D4  0000              add [eax],al
000018D6  0000              add [eax],al
000018D8  0000              add [eax],al
000018DA  0000              add [eax],al
000018DC  0000              add [eax],al
000018DE  0000              add [eax],al
000018E0  0000              add [eax],al
000018E2  0000              add [eax],al
000018E4  0000              add [eax],al
000018E6  0000              add [eax],al
000018E8  0000              add [eax],al
000018EA  0000              add [eax],al
000018EC  0000              add [eax],al
000018EE  0000              add [eax],al
000018F0  0000              add [eax],al
000018F2  0000              add [eax],al
000018F4  0000              add [eax],al
000018F6  0000              add [eax],al
000018F8  0000              add [eax],al
000018FA  0000              add [eax],al
000018FC  0000              add [eax],al
000018FE  0000              add [eax],al
00001900  0000              add [eax],al
00001902  0000              add [eax],al
00001904  0000              add [eax],al
00001906  0000              add [eax],al
00001908  0000              add [eax],al
0000190A  0000              add [eax],al
0000190C  0000              add [eax],al
0000190E  0000              add [eax],al
00001910  0000              add [eax],al
00001912  0000              add [eax],al
00001914  0000              add [eax],al
00001916  0000              add [eax],al
00001918  0000              add [eax],al
0000191A  0000              add [eax],al
0000191C  0000              add [eax],al
0000191E  0000              add [eax],al
00001920  0000              add [eax],al
00001922  0000              add [eax],al
00001924  0000              add [eax],al
00001926  0000              add [eax],al
00001928  0000              add [eax],al
0000192A  0000              add [eax],al
0000192C  0000              add [eax],al
0000192E  0000              add [eax],al
00001930  0000              add [eax],al
00001932  0000              add [eax],al
00001934  0000              add [eax],al
00001936  0000              add [eax],al
00001938  0000              add [eax],al
0000193A  0000              add [eax],al
0000193C  0000              add [eax],al
0000193E  0000              add [eax],al
00001940  0000              add [eax],al
00001942  0000              add [eax],al
00001944  0000              add [eax],al
00001946  0000              add [eax],al
00001948  0000              add [eax],al
0000194A  0000              add [eax],al
0000194C  0000              add [eax],al
0000194E  0000              add [eax],al
00001950  0000              add [eax],al
00001952  0000              add [eax],al
00001954  0000              add [eax],al
00001956  0000              add [eax],al
00001958  0000              add [eax],al
0000195A  0000              add [eax],al
0000195C  0000              add [eax],al
0000195E  0000              add [eax],al
00001960  0000              add [eax],al
00001962  0000              add [eax],al
00001964  0000              add [eax],al
00001966  0000              add [eax],al
00001968  0000              add [eax],al
0000196A  0000              add [eax],al
0000196C  0000              add [eax],al
0000196E  0000              add [eax],al
00001970  0000              add [eax],al
00001972  0000              add [eax],al
00001974  0000              add [eax],al
00001976  0000              add [eax],al
00001978  0000              add [eax],al
0000197A  0000              add [eax],al
0000197C  0000              add [eax],al
0000197E  0000              add [eax],al
00001980  0000              add [eax],al
00001982  0000              add [eax],al
00001984  0000              add [eax],al
00001986  0000              add [eax],al
00001988  0000              add [eax],al
0000198A  0000              add [eax],al
0000198C  0000              add [eax],al
0000198E  0000              add [eax],al
00001990  0000              add [eax],al
00001992  0000              add [eax],al
00001994  0000              add [eax],al
00001996  0000              add [eax],al
00001998  0000              add [eax],al
0000199A  0000              add [eax],al
0000199C  0000              add [eax],al
0000199E  0000              add [eax],al
000019A0  0000              add [eax],al
000019A2  0000              add [eax],al
000019A4  0000              add [eax],al
000019A6  0000              add [eax],al
000019A8  0000              add [eax],al
000019AA  0000              add [eax],al
000019AC  0000              add [eax],al
000019AE  0000              add [eax],al
000019B0  0000              add [eax],al
000019B2  0000              add [eax],al
000019B4  0000              add [eax],al
000019B6  0000              add [eax],al
000019B8  0000              add [eax],al
000019BA  0000              add [eax],al
000019BC  0000              add [eax],al
000019BE  0000              add [eax],al
000019C0  0000              add [eax],al
000019C2  0000              add [eax],al
000019C4  0000              add [eax],al
000019C6  0000              add [eax],al
000019C8  0000              add [eax],al
000019CA  0000              add [eax],al
000019CC  0000              add [eax],al
000019CE  0000              add [eax],al
000019D0  0000              add [eax],al
000019D2  0000              add [eax],al
000019D4  0000              add [eax],al
000019D6  0000              add [eax],al
000019D8  0000              add [eax],al
000019DA  0000              add [eax],al
000019DC  0000              add [eax],al
000019DE  0000              add [eax],al
000019E0  0000              add [eax],al
000019E2  0000              add [eax],al
000019E4  0000              add [eax],al
000019E6  0000              add [eax],al
000019E8  0000              add [eax],al
000019EA  0000              add [eax],al
000019EC  0000              add [eax],al
000019EE  0000              add [eax],al
000019F0  0000              add [eax],al
000019F2  0000              add [eax],al
000019F4  0000              add [eax],al
000019F6  0000              add [eax],al
000019F8  0000              add [eax],al
000019FA  0000              add [eax],al
000019FC  0000              add [eax],al
000019FE  0000              add [eax],al
00001A00  0000              add [eax],al
00001A02  0000              add [eax],al
00001A04  0000              add [eax],al
00001A06  0000              add [eax],al
00001A08  0000              add [eax],al
00001A0A  0000              add [eax],al
00001A0C  0000              add [eax],al
00001A0E  0000              add [eax],al
00001A10  0000              add [eax],al
00001A12  0000              add [eax],al
00001A14  0000              add [eax],al
00001A16  0000              add [eax],al
00001A18  0000              add [eax],al
00001A1A  0000              add [eax],al
00001A1C  0000              add [eax],al
00001A1E  0000              add [eax],al
00001A20  0000              add [eax],al
00001A22  0000              add [eax],al
00001A24  0000              add [eax],al
00001A26  0000              add [eax],al
00001A28  0000              add [eax],al
00001A2A  0000              add [eax],al
00001A2C  0000              add [eax],al
00001A2E  0000              add [eax],al
00001A30  0000              add [eax],al
00001A32  0000              add [eax],al
00001A34  0000              add [eax],al
00001A36  0000              add [eax],al
00001A38  0000              add [eax],al
00001A3A  0000              add [eax],al
00001A3C  0000              add [eax],al
00001A3E  0000              add [eax],al
00001A40  0000              add [eax],al
00001A42  0000              add [eax],al
00001A44  0000              add [eax],al
00001A46  0000              add [eax],al
00001A48  0000              add [eax],al
00001A4A  0000              add [eax],al
00001A4C  0000              add [eax],al
00001A4E  0000              add [eax],al
00001A50  0000              add [eax],al
00001A52  0000              add [eax],al
00001A54  0000              add [eax],al
00001A56  0000              add [eax],al
00001A58  0000              add [eax],al
00001A5A  0000              add [eax],al
00001A5C  0000              add [eax],al
00001A5E  0000              add [eax],al
00001A60  0000              add [eax],al
00001A62  0000              add [eax],al
00001A64  0000              add [eax],al
00001A66  0000              add [eax],al
00001A68  0000              add [eax],al
00001A6A  0000              add [eax],al
00001A6C  0000              add [eax],al
00001A6E  0000              add [eax],al
00001A70  0000              add [eax],al
00001A72  0000              add [eax],al
00001A74  0000              add [eax],al
00001A76  0000              add [eax],al
00001A78  0000              add [eax],al
00001A7A  0000              add [eax],al
00001A7C  0000              add [eax],al
00001A7E  0000              add [eax],al
00001A80  0000              add [eax],al
00001A82  0000              add [eax],al
00001A84  0000              add [eax],al
00001A86  0000              add [eax],al
00001A88  0000              add [eax],al
00001A8A  0000              add [eax],al
00001A8C  0000              add [eax],al
00001A8E  0000              add [eax],al
00001A90  0000              add [eax],al
00001A92  0000              add [eax],al
00001A94  0000              add [eax],al
00001A96  0000              add [eax],al
00001A98  0000              add [eax],al
00001A9A  0000              add [eax],al
00001A9C  0000              add [eax],al
00001A9E  0000              add [eax],al
00001AA0  0000              add [eax],al
00001AA2  0000              add [eax],al
00001AA4  0000              add [eax],al
00001AA6  0000              add [eax],al
00001AA8  0000              add [eax],al
00001AAA  0000              add [eax],al
00001AAC  0000              add [eax],al
00001AAE  0000              add [eax],al
00001AB0  0000              add [eax],al
00001AB2  0000              add [eax],al
00001AB4  0000              add [eax],al
00001AB6  0000              add [eax],al
00001AB8  0000              add [eax],al
00001ABA  0000              add [eax],al
00001ABC  0000              add [eax],al
00001ABE  0000              add [eax],al
00001AC0  0000              add [eax],al
00001AC2  0000              add [eax],al
00001AC4  0000              add [eax],al
00001AC6  0000              add [eax],al
00001AC8  0000              add [eax],al
00001ACA  0000              add [eax],al
00001ACC  0000              add [eax],al
00001ACE  0000              add [eax],al
00001AD0  0000              add [eax],al
00001AD2  0000              add [eax],al
00001AD4  0000              add [eax],al
00001AD6  0000              add [eax],al
00001AD8  0000              add [eax],al
00001ADA  0000              add [eax],al
00001ADC  0000              add [eax],al
00001ADE  0000              add [eax],al
00001AE0  0000              add [eax],al
00001AE2  0000              add [eax],al
00001AE4  0000              add [eax],al
00001AE6  0000              add [eax],al
00001AE8  0000              add [eax],al
00001AEA  0000              add [eax],al
00001AEC  0000              add [eax],al
00001AEE  0000              add [eax],al
00001AF0  0000              add [eax],al
00001AF2  0000              add [eax],al
00001AF4  0000              add [eax],al
00001AF6  0000              add [eax],al
00001AF8  0000              add [eax],al
00001AFA  0000              add [eax],al
00001AFC  0000              add [eax],al
00001AFE  0000              add [eax],al
00001B00  0000              add [eax],al
00001B02  0000              add [eax],al
00001B04  0000              add [eax],al
00001B06  0000              add [eax],al
00001B08  0000              add [eax],al
00001B0A  0000              add [eax],al
00001B0C  0000              add [eax],al
00001B0E  0000              add [eax],al
00001B10  0000              add [eax],al
00001B12  0000              add [eax],al
00001B14  0000              add [eax],al
00001B16  0000              add [eax],al
00001B18  0000              add [eax],al
00001B1A  0000              add [eax],al
00001B1C  0000              add [eax],al
00001B1E  0000              add [eax],al
00001B20  0000              add [eax],al
00001B22  0000              add [eax],al
00001B24  0000              add [eax],al
00001B26  0000              add [eax],al
00001B28  0000              add [eax],al
00001B2A  0000              add [eax],al
00001B2C  0000              add [eax],al
00001B2E  0000              add [eax],al
00001B30  0000              add [eax],al
00001B32  0000              add [eax],al
00001B34  0000              add [eax],al
00001B36  0000              add [eax],al
00001B38  0000              add [eax],al
00001B3A  0000              add [eax],al
00001B3C  0000              add [eax],al
00001B3E  0000              add [eax],al
00001B40  0000              add [eax],al
00001B42  0000              add [eax],al
00001B44  0000              add [eax],al
00001B46  0000              add [eax],al
00001B48  0000              add [eax],al
00001B4A  0000              add [eax],al
00001B4C  0000              add [eax],al
00001B4E  0000              add [eax],al
00001B50  0000              add [eax],al
00001B52  0000              add [eax],al
00001B54  0000              add [eax],al
00001B56  0000              add [eax],al
00001B58  0000              add [eax],al
00001B5A  0000              add [eax],al
00001B5C  0000              add [eax],al
00001B5E  0000              add [eax],al
00001B60  0000              add [eax],al
00001B62  0000              add [eax],al
00001B64  0000              add [eax],al
00001B66  0000              add [eax],al
00001B68  0000              add [eax],al
00001B6A  0000              add [eax],al
00001B6C  0000              add [eax],al
00001B6E  0000              add [eax],al
00001B70  0000              add [eax],al
00001B72  0000              add [eax],al
00001B74  0000              add [eax],al
00001B76  0000              add [eax],al
00001B78  0000              add [eax],al
00001B7A  0000              add [eax],al
00001B7C  0000              add [eax],al
00001B7E  0000              add [eax],al
00001B80  0000              add [eax],al
00001B82  0000              add [eax],al
00001B84  0000              add [eax],al
00001B86  0000              add [eax],al
00001B88  0000              add [eax],al
00001B8A  0000              add [eax],al
00001B8C  0000              add [eax],al
00001B8E  0000              add [eax],al
00001B90  0000              add [eax],al
00001B92  0000              add [eax],al
00001B94  0000              add [eax],al
00001B96  0000              add [eax],al
00001B98  0000              add [eax],al
00001B9A  0000              add [eax],al
00001B9C  0000              add [eax],al
00001B9E  0000              add [eax],al
00001BA0  0000              add [eax],al
00001BA2  0000              add [eax],al
00001BA4  0000              add [eax],al
00001BA6  0000              add [eax],al
00001BA8  0000              add [eax],al
00001BAA  0000              add [eax],al
00001BAC  0000              add [eax],al
00001BAE  0000              add [eax],al
00001BB0  0000              add [eax],al
00001BB2  0000              add [eax],al
00001BB4  0000              add [eax],al
00001BB6  0000              add [eax],al
00001BB8  0000              add [eax],al
00001BBA  0000              add [eax],al
00001BBC  0000              add [eax],al
00001BBE  0000              add [eax],al
00001BC0  0000              add [eax],al
00001BC2  0000              add [eax],al
00001BC4  0000              add [eax],al
00001BC6  0000              add [eax],al
00001BC8  0000              add [eax],al
00001BCA  0000              add [eax],al
00001BCC  0000              add [eax],al
00001BCE  0000              add [eax],al
00001BD0  0000              add [eax],al
00001BD2  0000              add [eax],al
00001BD4  0000              add [eax],al
00001BD6  0000              add [eax],al
00001BD8  0000              add [eax],al
00001BDA  0000              add [eax],al
00001BDC  0000              add [eax],al
00001BDE  0000              add [eax],al
00001BE0  0000              add [eax],al
00001BE2  0000              add [eax],al
00001BE4  0000              add [eax],al
00001BE6  0000              add [eax],al
00001BE8  0000              add [eax],al
00001BEA  0000              add [eax],al
00001BEC  0000              add [eax],al
00001BEE  0000              add [eax],al
00001BF0  0000              add [eax],al
00001BF2  0000              add [eax],al
00001BF4  0000              add [eax],al
00001BF6  0000              add [eax],al
00001BF8  0000              add [eax],al
00001BFA  0000              add [eax],al
00001BFC  0000              add [eax],al
00001BFE  0000              add [eax],al
00001C00  0000              add [eax],al
00001C02  0000              add [eax],al
00001C04  0000              add [eax],al
00001C06  0000              add [eax],al
00001C08  0000              add [eax],al
00001C0A  0000              add [eax],al
00001C0C  0000              add [eax],al
00001C0E  0000              add [eax],al
00001C10  0000              add [eax],al
00001C12  0000              add [eax],al
00001C14  0000              add [eax],al
00001C16  0000              add [eax],al
00001C18  0000              add [eax],al
00001C1A  0000              add [eax],al
00001C1C  0000              add [eax],al
00001C1E  0000              add [eax],al
00001C20  0000              add [eax],al
00001C22  0000              add [eax],al
00001C24  0000              add [eax],al
00001C26  0000              add [eax],al
00001C28  0000              add [eax],al
00001C2A  0000              add [eax],al
00001C2C  0000              add [eax],al
00001C2E  0000              add [eax],al
00001C30  0000              add [eax],al
00001C32  0000              add [eax],al
00001C34  0000              add [eax],al
00001C36  0000              add [eax],al
00001C38  0000              add [eax],al
00001C3A  0000              add [eax],al
00001C3C  0000              add [eax],al
00001C3E  0000              add [eax],al
00001C40  0000              add [eax],al
00001C42  0000              add [eax],al
00001C44  0000              add [eax],al
00001C46  0000              add [eax],al
00001C48  0000              add [eax],al
00001C4A  0000              add [eax],al
00001C4C  0000              add [eax],al
00001C4E  0000              add [eax],al
00001C50  0000              add [eax],al
00001C52  0000              add [eax],al
00001C54  0000              add [eax],al
00001C56  0000              add [eax],al
00001C58  0000              add [eax],al
00001C5A  0000              add [eax],al
00001C5C  0000              add [eax],al
00001C5E  0000              add [eax],al
00001C60  0000              add [eax],al
00001C62  0000              add [eax],al
00001C64  0000              add [eax],al
00001C66  0000              add [eax],al
00001C68  0000              add [eax],al
00001C6A  0000              add [eax],al
00001C6C  0000              add [eax],al
00001C6E  0000              add [eax],al
00001C70  0000              add [eax],al
00001C72  0000              add [eax],al
00001C74  0000              add [eax],al
00001C76  0000              add [eax],al
00001C78  0000              add [eax],al
00001C7A  0000              add [eax],al
00001C7C  0000              add [eax],al
00001C7E  0000              add [eax],al
00001C80  0000              add [eax],al
00001C82  0000              add [eax],al
00001C84  0000              add [eax],al
00001C86  0000              add [eax],al
00001C88  0000              add [eax],al
00001C8A  0000              add [eax],al
00001C8C  0000              add [eax],al
00001C8E  0000              add [eax],al
00001C90  0000              add [eax],al
00001C92  0000              add [eax],al
00001C94  0000              add [eax],al
00001C96  0000              add [eax],al
00001C98  0000              add [eax],al
00001C9A  0000              add [eax],al
00001C9C  0000              add [eax],al
00001C9E  0000              add [eax],al
00001CA0  0000              add [eax],al
00001CA2  0000              add [eax],al
00001CA4  0000              add [eax],al
00001CA6  0000              add [eax],al
00001CA8  0000              add [eax],al
00001CAA  0000              add [eax],al
00001CAC  0000              add [eax],al
00001CAE  0000              add [eax],al
00001CB0  0000              add [eax],al
00001CB2  0000              add [eax],al
00001CB4  0000              add [eax],al
00001CB6  0000              add [eax],al
00001CB8  0000              add [eax],al
00001CBA  0000              add [eax],al
00001CBC  0000              add [eax],al
00001CBE  0000              add [eax],al
00001CC0  0000              add [eax],al
00001CC2  0000              add [eax],al
00001CC4  0000              add [eax],al
00001CC6  0000              add [eax],al
00001CC8  0000              add [eax],al
00001CCA  0000              add [eax],al
00001CCC  0000              add [eax],al
00001CCE  0000              add [eax],al
00001CD0  0000              add [eax],al
00001CD2  0000              add [eax],al
00001CD4  0000              add [eax],al
00001CD6  0000              add [eax],al
00001CD8  0000              add [eax],al
00001CDA  0000              add [eax],al
00001CDC  0000              add [eax],al
00001CDE  0000              add [eax],al
00001CE0  0000              add [eax],al
00001CE2  0000              add [eax],al
00001CE4  0000              add [eax],al
00001CE6  0000              add [eax],al
00001CE8  0000              add [eax],al
00001CEA  0000              add [eax],al
00001CEC  0000              add [eax],al
00001CEE  0000              add [eax],al
00001CF0  0000              add [eax],al
00001CF2  0000              add [eax],al
00001CF4  0000              add [eax],al
00001CF6  0000              add [eax],al
00001CF8  0000              add [eax],al
00001CFA  0000              add [eax],al
00001CFC  0000              add [eax],al
00001CFE  0000              add [eax],al
00001D00  0000              add [eax],al
00001D02  0000              add [eax],al
00001D04  0000              add [eax],al
00001D06  0000              add [eax],al
00001D08  0000              add [eax],al
00001D0A  0000              add [eax],al
00001D0C  0000              add [eax],al
00001D0E  0000              add [eax],al
00001D10  0000              add [eax],al
00001D12  0000              add [eax],al
00001D14  0000              add [eax],al
00001D16  0000              add [eax],al
00001D18  0000              add [eax],al
00001D1A  0000              add [eax],al
00001D1C  0000              add [eax],al
00001D1E  0000              add [eax],al
00001D20  0000              add [eax],al
00001D22  0000              add [eax],al
00001D24  0000              add [eax],al
00001D26  0000              add [eax],al
00001D28  0000              add [eax],al
00001D2A  0000              add [eax],al
00001D2C  0000              add [eax],al
00001D2E  0000              add [eax],al
00001D30  0000              add [eax],al
00001D32  0000              add [eax],al
00001D34  0000              add [eax],al
00001D36  0000              add [eax],al
00001D38  0000              add [eax],al
00001D3A  0000              add [eax],al
00001D3C  0000              add [eax],al
00001D3E  0000              add [eax],al
00001D40  0000              add [eax],al
00001D42  0000              add [eax],al
00001D44  0000              add [eax],al
00001D46  0000              add [eax],al
00001D48  0000              add [eax],al
00001D4A  0000              add [eax],al
00001D4C  0000              add [eax],al
00001D4E  0000              add [eax],al
00001D50  0000              add [eax],al
00001D52  0000              add [eax],al
00001D54  0000              add [eax],al
00001D56  0000              add [eax],al
00001D58  0000              add [eax],al
00001D5A  0000              add [eax],al
00001D5C  0000              add [eax],al
00001D5E  0000              add [eax],al
00001D60  0000              add [eax],al
00001D62  0000              add [eax],al
00001D64  0000              add [eax],al
00001D66  0000              add [eax],al
00001D68  0000              add [eax],al
00001D6A  0000              add [eax],al
00001D6C  0000              add [eax],al
00001D6E  0000              add [eax],al
00001D70  0000              add [eax],al
00001D72  0000              add [eax],al
00001D74  0000              add [eax],al
00001D76  0000              add [eax],al
00001D78  0000              add [eax],al
00001D7A  0000              add [eax],al
00001D7C  0000              add [eax],al
00001D7E  0000              add [eax],al
00001D80  0000              add [eax],al
00001D82  0000              add [eax],al
00001D84  0000              add [eax],al
00001D86  0000              add [eax],al
00001D88  0000              add [eax],al
00001D8A  0000              add [eax],al
00001D8C  0000              add [eax],al
00001D8E  0000              add [eax],al
00001D90  0000              add [eax],al
00001D92  0000              add [eax],al
00001D94  0000              add [eax],al
00001D96  0000              add [eax],al
00001D98  0000              add [eax],al
00001D9A  0000              add [eax],al
00001D9C  0000              add [eax],al
00001D9E  0000              add [eax],al
00001DA0  0000              add [eax],al
00001DA2  0000              add [eax],al
00001DA4  0000              add [eax],al
00001DA6  0000              add [eax],al
00001DA8  0000              add [eax],al
00001DAA  0000              add [eax],al
00001DAC  0000              add [eax],al
00001DAE  0000              add [eax],al
00001DB0  0000              add [eax],al
00001DB2  0000              add [eax],al
00001DB4  0000              add [eax],al
00001DB6  0000              add [eax],al
00001DB8  0000              add [eax],al
00001DBA  0000              add [eax],al
00001DBC  0000              add [eax],al
00001DBE  0000              add [eax],al
00001DC0  0000              add [eax],al
00001DC2  0000              add [eax],al
00001DC4  0000              add [eax],al
00001DC6  0000              add [eax],al
00001DC8  0000              add [eax],al
00001DCA  0000              add [eax],al
00001DCC  0000              add [eax],al
00001DCE  0000              add [eax],al
00001DD0  0000              add [eax],al
00001DD2  0000              add [eax],al
00001DD4  0000              add [eax],al
00001DD6  0000              add [eax],al
00001DD8  0000              add [eax],al
00001DDA  0000              add [eax],al
00001DDC  0000              add [eax],al
00001DDE  0000              add [eax],al
00001DE0  0000              add [eax],al
00001DE2  0000              add [eax],al
00001DE4  0000              add [eax],al
00001DE6  0000              add [eax],al
00001DE8  0000              add [eax],al
00001DEA  0000              add [eax],al
00001DEC  0000              add [eax],al
00001DEE  0000              add [eax],al
00001DF0  0000              add [eax],al
00001DF2  0000              add [eax],al
00001DF4  0000              add [eax],al
00001DF6  0000              add [eax],al
00001DF8  0000              add [eax],al
00001DFA  0000              add [eax],al
00001DFC  0000              add [eax],al
00001DFE  0000              add [eax],al
00001E00  0000              add [eax],al
00001E02  0000              add [eax],al
00001E04  0000              add [eax],al
00001E06  0000              add [eax],al
00001E08  0000              add [eax],al
00001E0A  0000              add [eax],al
00001E0C  0000              add [eax],al
00001E0E  0000              add [eax],al
00001E10  0000              add [eax],al
00001E12  0000              add [eax],al
00001E14  0000              add [eax],al
00001E16  0000              add [eax],al
00001E18  0000              add [eax],al
00001E1A  0000              add [eax],al
00001E1C  0000              add [eax],al
00001E1E  0000              add [eax],al
00001E20  0000              add [eax],al
00001E22  0000              add [eax],al
00001E24  0000              add [eax],al
00001E26  0000              add [eax],al
00001E28  0000              add [eax],al
00001E2A  0000              add [eax],al
00001E2C  0000              add [eax],al
00001E2E  0000              add [eax],al
00001E30  0000              add [eax],al
00001E32  0000              add [eax],al
00001E34  0000              add [eax],al
00001E36  0000              add [eax],al
00001E38  0000              add [eax],al
00001E3A  0000              add [eax],al
00001E3C  0000              add [eax],al
00001E3E  0000              add [eax],al
00001E40  0000              add [eax],al
00001E42  0000              add [eax],al
00001E44  0000              add [eax],al
00001E46  0000              add [eax],al
00001E48  0000              add [eax],al
00001E4A  0000              add [eax],al
00001E4C  0000              add [eax],al
00001E4E  0000              add [eax],al
00001E50  0000              add [eax],al
00001E52  0000              add [eax],al
00001E54  0000              add [eax],al
00001E56  0000              add [eax],al
00001E58  0000              add [eax],al
00001E5A  0000              add [eax],al
00001E5C  0000              add [eax],al
00001E5E  0000              add [eax],al
00001E60  0000              add [eax],al
00001E62  0000              add [eax],al
00001E64  0000              add [eax],al
00001E66  0000              add [eax],al
00001E68  0000              add [eax],al
00001E6A  0000              add [eax],al
00001E6C  0000              add [eax],al
00001E6E  0000              add [eax],al
00001E70  0000              add [eax],al
00001E72  0000              add [eax],al
00001E74  0000              add [eax],al
00001E76  0000              add [eax],al
00001E78  0000              add [eax],al
00001E7A  0000              add [eax],al
00001E7C  0000              add [eax],al
00001E7E  0000              add [eax],al
00001E80  0000              add [eax],al
00001E82  0000              add [eax],al
00001E84  0000              add [eax],al
00001E86  0000              add [eax],al
00001E88  0000              add [eax],al
00001E8A  0000              add [eax],al
00001E8C  0000              add [eax],al
00001E8E  0000              add [eax],al
00001E90  0000              add [eax],al
00001E92  0000              add [eax],al
00001E94  0000              add [eax],al
00001E96  0000              add [eax],al
00001E98  0000              add [eax],al
00001E9A  0000              add [eax],al
00001E9C  0000              add [eax],al
00001E9E  0000              add [eax],al
00001EA0  0000              add [eax],al
00001EA2  0000              add [eax],al
00001EA4  0000              add [eax],al
00001EA6  0000              add [eax],al
00001EA8  0000              add [eax],al
00001EAA  0000              add [eax],al
00001EAC  0000              add [eax],al
00001EAE  0000              add [eax],al
00001EB0  0000              add [eax],al
00001EB2  0000              add [eax],al
00001EB4  0000              add [eax],al
00001EB6  0000              add [eax],al
00001EB8  0000              add [eax],al
00001EBA  0000              add [eax],al
00001EBC  0000              add [eax],al
00001EBE  0000              add [eax],al
00001EC0  0000              add [eax],al
00001EC2  0000              add [eax],al
00001EC4  0000              add [eax],al
00001EC6  0000              add [eax],al
00001EC8  0000              add [eax],al
00001ECA  0000              add [eax],al
00001ECC  0000              add [eax],al
00001ECE  0000              add [eax],al
00001ED0  0000              add [eax],al
00001ED2  0000              add [eax],al
00001ED4  0000              add [eax],al
00001ED6  0000              add [eax],al
00001ED8  0000              add [eax],al
00001EDA  0000              add [eax],al
00001EDC  0000              add [eax],al
00001EDE  0000              add [eax],al
00001EE0  0000              add [eax],al
00001EE2  0000              add [eax],al
00001EE4  0000              add [eax],al
00001EE6  0000              add [eax],al
00001EE8  0000              add [eax],al
00001EEA  0000              add [eax],al
00001EEC  0000              add [eax],al
00001EEE  0000              add [eax],al
00001EF0  0000              add [eax],al
00001EF2  0000              add [eax],al
00001EF4  0000              add [eax],al
00001EF6  0000              add [eax],al
00001EF8  0000              add [eax],al
00001EFA  0000              add [eax],al
00001EFC  0000              add [eax],al
00001EFE  0000              add [eax],al
00001F00  0000              add [eax],al
00001F02  0000              add [eax],al
00001F04  0000              add [eax],al
00001F06  0000              add [eax],al
00001F08  0000              add [eax],al
00001F0A  0000              add [eax],al
00001F0C  0000              add [eax],al
00001F0E  0000              add [eax],al
00001F10  0000              add [eax],al
00001F12  0000              add [eax],al
00001F14  0000              add [eax],al
00001F16  0000              add [eax],al
00001F18  0000              add [eax],al
00001F1A  0000              add [eax],al
00001F1C  0000              add [eax],al
00001F1E  0000              add [eax],al
00001F20  0000              add [eax],al
00001F22  0000              add [eax],al
00001F24  0000              add [eax],al
00001F26  0000              add [eax],al
00001F28  0000              add [eax],al
00001F2A  0000              add [eax],al
00001F2C  0000              add [eax],al
00001F2E  0000              add [eax],al
00001F30  0000              add [eax],al
00001F32  0000              add [eax],al
00001F34  0000              add [eax],al
00001F36  0000              add [eax],al
00001F38  0000              add [eax],al
00001F3A  0000              add [eax],al
00001F3C  0000              add [eax],al
00001F3E  0000              add [eax],al
00001F40  0000              add [eax],al
00001F42  0000              add [eax],al
00001F44  0000              add [eax],al
00001F46  0000              add [eax],al
00001F48  0000              add [eax],al
00001F4A  0000              add [eax],al
00001F4C  0000              add [eax],al
00001F4E  0000              add [eax],al
00001F50  0000              add [eax],al
00001F52  0000              add [eax],al
00001F54  0000              add [eax],al
00001F56  0000              add [eax],al
00001F58  0000              add [eax],al
00001F5A  0000              add [eax],al
00001F5C  0000              add [eax],al
00001F5E  0000              add [eax],al
00001F60  0000              add [eax],al
00001F62  0000              add [eax],al
00001F64  0000              add [eax],al
00001F66  0000              add [eax],al
00001F68  0000              add [eax],al
00001F6A  0000              add [eax],al
00001F6C  0000              add [eax],al
00001F6E  0000              add [eax],al
00001F70  0000              add [eax],al
00001F72  0000              add [eax],al
00001F74  0000              add [eax],al
00001F76  0000              add [eax],al
00001F78  0000              add [eax],al
00001F7A  0000              add [eax],al
00001F7C  0000              add [eax],al
00001F7E  0000              add [eax],al
00001F80  0000              add [eax],al
00001F82  0000              add [eax],al
00001F84  0000              add [eax],al
00001F86  0000              add [eax],al
00001F88  0000              add [eax],al
00001F8A  0000              add [eax],al
00001F8C  0000              add [eax],al
00001F8E  0000              add [eax],al
00001F90  0000              add [eax],al
00001F92  0000              add [eax],al
00001F94  0000              add [eax],al
00001F96  0000              add [eax],al
00001F98  0000              add [eax],al
00001F9A  0000              add [eax],al
00001F9C  0000              add [eax],al
00001F9E  0000              add [eax],al
00001FA0  0000              add [eax],al
00001FA2  0000              add [eax],al
00001FA4  0000              add [eax],al
00001FA6  0000              add [eax],al
00001FA8  0000              add [eax],al
00001FAA  0000              add [eax],al
00001FAC  0000              add [eax],al
00001FAE  0000              add [eax],al
00001FB0  0000              add [eax],al
00001FB2  0000              add [eax],al
00001FB4  0000              add [eax],al
00001FB6  0000              add [eax],al
00001FB8  0000              add [eax],al
00001FBA  0000              add [eax],al
00001FBC  0000              add [eax],al
00001FBE  0000              add [eax],al
00001FC0  0000              add [eax],al
00001FC2  0000              add [eax],al
00001FC4  0000              add [eax],al
00001FC6  0000              add [eax],al
00001FC8  0000              add [eax],al
00001FCA  0000              add [eax],al
00001FCC  0000              add [eax],al
00001FCE  0000              add [eax],al
00001FD0  0000              add [eax],al
00001FD2  0000              add [eax],al
00001FD4  0000              add [eax],al
00001FD6  0000              add [eax],al
00001FD8  0000              add [eax],al
00001FDA  0000              add [eax],al
00001FDC  0000              add [eax],al
00001FDE  0000              add [eax],al
00001FE0  0000              add [eax],al
00001FE2  0000              add [eax],al
00001FE4  0000              add [eax],al
00001FE6  0000              add [eax],al
00001FE8  0000              add [eax],al
00001FEA  0000              add [eax],al
00001FEC  0000              add [eax],al
00001FEE  0000              add [eax],al
00001FF0  0000              add [eax],al
00001FF2  0000              add [eax],al
00001FF4  0000              add [eax],al
00001FF6  0000              add [eax],al
00001FF8  0000              add [eax],al
00001FFA  0000              add [eax],al
00001FFC  0000              add [eax],al
00001FFE  0000              add [eax],al
00002000  1400              adc al,0x0
00002002  0000              add [eax],al
00002004  0000              add [eax],al
00002006  0000              add [eax],al
00002008  017A52            add [edx+0x52],edi
0000200B  0001              add [ecx],al
0000200D  7C08              jl 0x2017
0000200F  011B              add [ebx],ebx
00002011  0C04              or al,0x4
00002013  0488              add al,0x88
00002015  0100              add [eax],eax
00002017  001C00            add [eax+eax],bl
0000201A  0000              add [eax],al
0000201C  1C00              sbb al,0x0
0000201E  0000              add [eax],al
00002020  E0DF              loopne 0x2001
00002022  FF                db 0xff
00002023  FF                db 0xff
00002024  7C00              jl 0x2026
00002026  0000              add [eax],al
00002028  00410E            add [ecx+0xe],al
0000202B  088502420D05      or [ebp+0x50d4202],al
00002031  0278C5            add bh,[eax-0x3b]
00002034  0C04              or al,0x4
00002036  0400              add al,0x0
00002038  1400              adc al,0x0
0000203A  0000              add [eax],al
0000203C  0000              add [eax],al
0000203E  0000              add [eax],al
00002040  017A52            add [edx+0x52],edi
00002043  0001              add [ecx],al
00002045  7C08              jl 0x204f
00002047  011B              add [ebx],ebx
00002049  0C04              or al,0x4
0000204B  0488              add al,0x88
0000204D  0100              add [eax],eax
0000204F  001C00            add [eax+eax],bl
00002052  0000              add [eax],al
00002054  1C00              sbb al,0x0
00002056  0000              add [eax],al
00002058  30E0              xor al,ah
0000205A  FF                db 0xff
0000205B  FF1D00000000      call dword far [dword 0x0]
00002061  41                inc ecx
00002062  0E                push cs
00002063  088502420D05      or [ebp+0x50d4202],al
00002069  59                pop ecx
0000206A  C50C04            lds ecx,[esp+eax]
0000206D  0400              add al,0x0
0000206F  001C00            add [eax+eax],bl
00002072  0000              add [eax],al
00002074  3C00              cmp al,0x0
00002076  0000              add [eax],al
00002078  2DE0FFFF1F        sub eax,0x1fffffe0
0000207D  0000              add [eax],al
0000207F  0000              add [eax],al
00002081  41                inc ecx
00002082  0E                push cs
00002083  088502420D05      or [ebp+0x50d4202],al
00002089  5B                pop ebx
0000208A  C50C04            lds ecx,[esp+eax]
0000208D  0400              add al,0x0
0000208F  001C00            add [eax+eax],bl
00002092  0000              add [eax],al
00002094  5C                pop esp
00002095  0000              add [eax],al
00002097  002CE0            add [eax],ch
0000209A  FF                db 0xff
0000209B  FF1F              call dword far [edi]
0000209D  0000              add [eax],al
0000209F  0000              add [eax],al
000020A1  41                inc ecx
000020A2  0E                push cs
000020A3  088502420D05      or [ebp+0x50d4202],al
000020A9  5B                pop ebx
000020AA  C50C04            lds ecx,[esp+eax]
000020AD  0400              add al,0x0
000020AF  001C00            add [eax+eax],bl
000020B2  0000              add [eax],al
000020B4  7C00              jl 0x20b6
000020B6  0000              add [eax],al
000020B8  2BE0              sub esp,eax
000020BA  FF                db 0xff
000020BB  FF21              jmp dword [ecx]
000020BD  0000              add [eax],al
000020BF  0000              add [eax],al
000020C1  41                inc ecx
000020C2  0E                push cs
000020C3  088502420D05      or [ebp+0x50d4202],al
000020C9  5D                pop ebp
000020CA  C50C04            lds ecx,[esp+eax]
000020CD  0400              add al,0x0
000020CF  001400            add [eax+eax],dl
000020D2  0000              add [eax],al
000020D4  0000              add [eax],al
000020D6  0000              add [eax],al
000020D8  017A52            add [edx+0x52],edi
000020DB  0001              add [ecx],al
000020DD  7C08              jl 0x20e7
000020DF  011B              add [ebx],ebx
000020E1  0C04              or al,0x4
000020E3  0488              add al,0x88
000020E5  0100              add [eax],eax
000020E7  001C00            add [eax+eax],bl
000020EA  0000              add [eax],al
000020EC  1C00              sbb al,0x0
000020EE  0000              add [eax],al
000020F0  14E0              adc al,0xe0
000020F2  FF                db 0xff
000020F3  FFA600000000      jmp dword [esi+0x0]
000020F9  41                inc ecx
000020FA  0E                push cs
000020FB  088502420D05      or [ebp+0x50d4202],al
00002101  02A2C50C0404      add ah,[edx+0x4040cc5]
00002107  001C00            add [eax+eax],bl
0000210A  0000              add [eax],al
0000210C  3C00              cmp al,0x0
0000210E  0000              add [eax],al
00002110  9AE0FFFF5C0000    call dword 0x0:0x5cffffe0
00002117  0000              add [eax],al
00002119  41                inc ecx
0000211A  0E                push cs
0000211B  088502420D05      or [ebp+0x50d4202],al
00002121  0258C5            add bl,[eax-0x3b]
00002124  0C04              or al,0x4
00002126  0400              add al,0x0
00002128  1C00              sbb al,0x0
0000212A  0000              add [eax],al
0000212C  5C                pop esp
0000212D  0000              add [eax],al
0000212F  00D6              add dh,dl
00002131  E0FF              loopne 0x2132
00002133  FF6F00            jmp dword far [edi+0x0]
00002136  0000              add [eax],al
00002138  00410E            add [ecx+0xe],al
0000213B  088502420D05      or [ebp+0x50d4202],al
00002141  026BC5            add ch,[ebx-0x3b]
00002144  0C04              or al,0x4
00002146  0400              add al,0x0
00002148  1C00              sbb al,0x0
0000214A  0000              add [eax],al
0000214C  7C00              jl 0x214e
0000214E  0000              add [eax],al
00002150  25E1FFFF1D        and eax,0x1dffffe1
00002155  0000              add [eax],al
00002157  0000              add [eax],al
00002159  41                inc ecx
0000215A  0E                push cs
0000215B  088502420D05      or [ebp+0x50d4202],al
00002161  59                pop ecx
00002162  C50C04            lds ecx,[esp+eax]
00002165  0400              add al,0x0
00002167  001C00            add [eax+eax],bl
0000216A  0000              add [eax],al
0000216C  9C                pushfd
0000216D  0000              add [eax],al
0000216F  0022              add [edx],ah
00002171  E1FF              loope 0x2172
00002173  FF36              push dword [esi]
00002175  0000              add [eax],al
00002177  0000              add [eax],al
00002179  41                inc ecx
0000217A  0E                push cs
0000217B  088502420D05      or [ebp+0x50d4202],al
00002181  72C5              jc 0x2148
00002183  0C04              or al,0x4
00002185  0400              add al,0x0
00002187  001C00            add [eax+eax],bl
0000218A  0000              add [eax],al
0000218C  BC00000038        mov esp,0x38000000
00002191  E1FF              loope 0x2192
00002193  FF1B              call dword far [ebx]
00002195  0000              add [eax],al
00002197  0000              add [eax],al
00002199  41                inc ecx
0000219A  0E                push cs
0000219B  088502420D05      or [ebp+0x50d4202],al
000021A1  57                push edi
000021A2  C50C04            lds ecx,[esp+eax]
000021A5  0400              add al,0x0
000021A7  001C00            add [eax+eax],bl
000021AA  0000              add [eax],al
000021AC  DC00              fadd qword [eax]
000021AE  0000              add [eax],al
000021B0  33E1              xor esp,ecx
000021B2  FF                db 0xff
000021B3  FFB000000000      push dword [eax+0x0]
000021B9  41                inc ecx
000021BA  0E                push cs
000021BB  088502420D05      or [ebp+0x50d4202],al
000021C1  02ACC50C040400    add ch,[ebp+eax*8+0x4040c]
000021C8  1C00              sbb al,0x0
000021CA  0000              add [eax],al
000021CC  FC                cld
000021CD  0000              add [eax],al
000021CF  00C3              add bl,al
000021D1  E1FF              loope 0x21d2
000021D3  FF                db 0xff
000021D4  7B00              jpo 0x21d6
000021D6  0000              add [eax],al
000021D8  00410E            add [ecx+0xe],al
000021DB  088502420D05      or [ebp+0x50d4202],al
000021E1  0277C5            add dh,[edi-0x3b]
000021E4  0C04              or al,0x4
000021E6  0400              add al,0x0
000021E8  1C00              sbb al,0x0
000021EA  0000              add [eax],al
000021EC  1C01              sbb al,0x1
000021EE  0000              add [eax],al
000021F0  1E                push ds
000021F1  E2FF              loop 0x21f2
000021F3  FF2400            jmp dword [eax+eax]
000021F6  0000              add [eax],al
000021F8  00410E            add [ecx+0xe],al
000021FB  088502420D05      or [ebp+0x50d4202],al
00002201  60                pushad
00002202  C50C04            lds ecx,[esp+eax]
00002205  0400              add al,0x0
00002207  001C00            add [eax+eax],bl
0000220A  0000              add [eax],al
0000220C  3C01              cmp al,0x1
0000220E  0000              add [eax],al
00002210  22E2              and ah,dl
00002212  FF                db 0xff
00002213  FF                db 0xff
00002214  7B00              jpo 0x2216
00002216  0000              add [eax],al
00002218  00410E            add [ecx+0xe],al
0000221B  088502420D05      or [ebp+0x50d4202],al
00002221  0277C5            add dh,[edi-0x3b]
00002224  0C04              or al,0x4
00002226  0400              add al,0x0
00002228  1400              adc al,0x0
0000222A  0000              add [eax],al
0000222C  0000              add [eax],al
0000222E  0000              add [eax],al
00002230  017A52            add [edx+0x52],edi
00002233  0001              add [ecx],al
00002235  7C08              jl 0x223f
00002237  011B              add [ebx],ebx
00002239  0C04              or al,0x4
0000223B  0488              add al,0x88
0000223D  0100              add [eax],eax
0000223F  001C00            add [eax+eax],bl
00002242  0000              add [eax],al
00002244  1C00              sbb al,0x0
00002246  0000              add [eax],al
00002248  68E2FFFF23        push dword 0x23ffffe2
0000224D  0000              add [eax],al
0000224F  0000              add [eax],al
00002251  41                inc ecx
00002252  0E                push cs
00002253  088502420D05      or [ebp+0x50d4202],al
00002259  5F                pop edi
0000225A  C50C04            lds ecx,[esp+eax]
0000225D  0400              add al,0x0
0000225F  0000              add [eax],al
00002261  0000              add [eax],al
00002263  0000              add [eax],al
00002265  0000              add [eax],al
00002267  0000              add [eax],al
00002269  0000              add [eax],al
0000226B  0000              add [eax],al
0000226D  0000              add [eax],al
0000226F  0000              add [eax],al
00002271  0000              add [eax],al
00002273  0000              add [eax],al
00002275  0000              add [eax],al
00002277  0000              add [eax],al
00002279  0000              add [eax],al
0000227B  0000              add [eax],al
0000227D  0000              add [eax],al
0000227F  0000              add [eax],al
00002281  0000              add [eax],al
00002283  0000              add [eax],al
00002285  0000              add [eax],al
00002287  0000              add [eax],al
00002289  0000              add [eax],al
0000228B  0000              add [eax],al
0000228D  0000              add [eax],al
0000228F  0000              add [eax],al
00002291  0000              add [eax],al
00002293  0000              add [eax],al
00002295  0000              add [eax],al
00002297  0000              add [eax],al
00002299  0000              add [eax],al
0000229B  0000              add [eax],al
0000229D  0000              add [eax],al
0000229F  0000              add [eax],al
000022A1  0000              add [eax],al
000022A3  0000              add [eax],al
000022A5  0000              add [eax],al
000022A7  0000              add [eax],al
000022A9  0000              add [eax],al
000022AB  0000              add [eax],al
000022AD  0000              add [eax],al
000022AF  0000              add [eax],al
000022B1  0000              add [eax],al
000022B3  0000              add [eax],al
000022B5  0000              add [eax],al
000022B7  0000              add [eax],al
000022B9  0000              add [eax],al
000022BB  0000              add [eax],al
000022BD  0000              add [eax],al
000022BF  0000              add [eax],al
000022C1  0000              add [eax],al
000022C3  0000              add [eax],al
000022C5  0000              add [eax],al
000022C7  0000              add [eax],al
000022C9  0000              add [eax],al
000022CB  0000              add [eax],al
000022CD  0000              add [eax],al
000022CF  0000              add [eax],al
000022D1  0000              add [eax],al
000022D3  0000              add [eax],al
000022D5  0000              add [eax],al
000022D7  0000              add [eax],al
000022D9  0000              add [eax],al
000022DB  0000              add [eax],al
000022DD  0000              add [eax],al
000022DF  0000              add [eax],al
000022E1  0000              add [eax],al
000022E3  0000              add [eax],al
000022E5  0000              add [eax],al
000022E7  0000              add [eax],al
000022E9  0000              add [eax],al
000022EB  0000              add [eax],al
000022ED  0000              add [eax],al
000022EF  0000              add [eax],al
000022F1  0000              add [eax],al
000022F3  0000              add [eax],al
000022F5  0000              add [eax],al
000022F7  0000              add [eax],al
000022F9  0000              add [eax],al
000022FB  0000              add [eax],al
000022FD  0000              add [eax],al
000022FF  0000              add [eax],al
00002301  0000              add [eax],al
00002303  0000              add [eax],al
00002305  0000              add [eax],al
00002307  0000              add [eax],al
00002309  0000              add [eax],al
0000230B  0000              add [eax],al
0000230D  0000              add [eax],al
0000230F  0000              add [eax],al
00002311  0000              add [eax],al
00002313  0000              add [eax],al
00002315  0000              add [eax],al
00002317  0000              add [eax],al
00002319  0000              add [eax],al
0000231B  0000              add [eax],al
0000231D  0000              add [eax],al
0000231F  0000              add [eax],al
00002321  0000              add [eax],al
00002323  0000              add [eax],al
00002325  0000              add [eax],al
00002327  0000              add [eax],al
00002329  0000              add [eax],al
0000232B  0000              add [eax],al
0000232D  0000              add [eax],al
0000232F  0000              add [eax],al
00002331  0000              add [eax],al
00002333  0000              add [eax],al
00002335  0000              add [eax],al
00002337  0000              add [eax],al
00002339  0000              add [eax],al
0000233B  0000              add [eax],al
0000233D  0000              add [eax],al
0000233F  0000              add [eax],al
00002341  0000              add [eax],al
00002343  0000              add [eax],al
00002345  0000              add [eax],al
00002347  0000              add [eax],al
00002349  0000              add [eax],al
0000234B  0000              add [eax],al
0000234D  0000              add [eax],al
0000234F  0000              add [eax],al
00002351  0000              add [eax],al
00002353  0000              add [eax],al
00002355  0000              add [eax],al
00002357  0000              add [eax],al
00002359  0000              add [eax],al
0000235B  0000              add [eax],al
0000235D  0000              add [eax],al
0000235F  0000              add [eax],al
00002361  0000              add [eax],al
00002363  0000              add [eax],al
00002365  0000              add [eax],al
00002367  0000              add [eax],al
00002369  0000              add [eax],al
0000236B  0000              add [eax],al
0000236D  0000              add [eax],al
0000236F  0000              add [eax],al
00002371  0000              add [eax],al
00002373  0000              add [eax],al
00002375  0000              add [eax],al
00002377  0000              add [eax],al
00002379  0000              add [eax],al
0000237B  0000              add [eax],al
0000237D  0000              add [eax],al
0000237F  0000              add [eax],al
00002381  0000              add [eax],al
00002383  0000              add [eax],al
00002385  0000              add [eax],al
00002387  0000              add [eax],al
00002389  0000              add [eax],al
0000238B  0000              add [eax],al
0000238D  0000              add [eax],al
0000238F  0000              add [eax],al
00002391  0000              add [eax],al
00002393  0000              add [eax],al
00002395  0000              add [eax],al
00002397  0000              add [eax],al
00002399  0000              add [eax],al
0000239B  0000              add [eax],al
0000239D  0000              add [eax],al
0000239F  0000              add [eax],al
000023A1  0000              add [eax],al
000023A3  0000              add [eax],al
000023A5  0000              add [eax],al
000023A7  0000              add [eax],al
000023A9  0000              add [eax],al
000023AB  0000              add [eax],al
000023AD  0000              add [eax],al
000023AF  0000              add [eax],al
000023B1  0000              add [eax],al
000023B3  0000              add [eax],al
000023B5  0000              add [eax],al
000023B7  0000              add [eax],al
000023B9  0000              add [eax],al
000023BB  0000              add [eax],al
000023BD  0000              add [eax],al
000023BF  0000              add [eax],al
000023C1  0000              add [eax],al
000023C3  0000              add [eax],al
000023C5  0000              add [eax],al
000023C7  0000              add [eax],al
000023C9  0000              add [eax],al
000023CB  0000              add [eax],al
000023CD  0000              add [eax],al
000023CF  0000              add [eax],al
000023D1  0000              add [eax],al
000023D3  0000              add [eax],al
000023D5  0000              add [eax],al
000023D7  0000              add [eax],al
000023D9  0000              add [eax],al
000023DB  0000              add [eax],al
000023DD  0000              add [eax],al
000023DF  0000              add [eax],al
000023E1  0000              add [eax],al
000023E3  0000              add [eax],al
000023E5  0000              add [eax],al
000023E7  0000              add [eax],al
000023E9  0000              add [eax],al
000023EB  0000              add [eax],al
000023ED  0000              add [eax],al
000023EF  0000              add [eax],al
000023F1  0000              add [eax],al
000023F3  0000              add [eax],al
000023F5  0000              add [eax],al
000023F7  0000              add [eax],al
000023F9  0000              add [eax],al
000023FB  0000              add [eax],al
000023FD  0000              add [eax],al
000023FF  0000              add [eax],al
00002401  0000              add [eax],al
00002403  0000              add [eax],al
00002405  0000              add [eax],al
00002407  0000              add [eax],al
00002409  0000              add [eax],al
0000240B  0000              add [eax],al
0000240D  0000              add [eax],al
0000240F  0000              add [eax],al
00002411  0000              add [eax],al
00002413  0000              add [eax],al
00002415  0000              add [eax],al
00002417  0000              add [eax],al
00002419  0000              add [eax],al
0000241B  0000              add [eax],al
0000241D  0000              add [eax],al
0000241F  0000              add [eax],al
00002421  0000              add [eax],al
00002423  0000              add [eax],al
00002425  0000              add [eax],al
00002427  0000              add [eax],al
00002429  0000              add [eax],al
0000242B  0000              add [eax],al
0000242D  0000              add [eax],al
0000242F  0000              add [eax],al
00002431  0000              add [eax],al
00002433  0000              add [eax],al
00002435  0000              add [eax],al
00002437  0000              add [eax],al
00002439  0000              add [eax],al
0000243B  0000              add [eax],al
0000243D  0000              add [eax],al
0000243F  0000              add [eax],al
00002441  0000              add [eax],al
00002443  0000              add [eax],al
00002445  0000              add [eax],al
00002447  0000              add [eax],al
00002449  0000              add [eax],al
0000244B  0000              add [eax],al
0000244D  0000              add [eax],al
0000244F  0000              add [eax],al
00002451  0000              add [eax],al
00002453  0000              add [eax],al
00002455  0000              add [eax],al
00002457  0000              add [eax],al
00002459  0000              add [eax],al
0000245B  0000              add [eax],al
0000245D  0000              add [eax],al
0000245F  0000              add [eax],al
00002461  0000              add [eax],al
00002463  0000              add [eax],al
00002465  0000              add [eax],al
00002467  0000              add [eax],al
00002469  0000              add [eax],al
0000246B  0000              add [eax],al
0000246D  0000              add [eax],al
0000246F  0000              add [eax],al
00002471  0000              add [eax],al
00002473  0000              add [eax],al
00002475  0000              add [eax],al
00002477  0000              add [eax],al
00002479  0000              add [eax],al
0000247B  0000              add [eax],al
0000247D  0000              add [eax],al
0000247F  0000              add [eax],al
00002481  0000              add [eax],al
00002483  0000              add [eax],al
00002485  0000              add [eax],al
00002487  0000              add [eax],al
00002489  0000              add [eax],al
0000248B  0000              add [eax],al
0000248D  0000              add [eax],al
0000248F  0000              add [eax],al
00002491  0000              add [eax],al
00002493  0000              add [eax],al
00002495  0000              add [eax],al
00002497  0000              add [eax],al
00002499  0000              add [eax],al
0000249B  0000              add [eax],al
0000249D  0000              add [eax],al
0000249F  0000              add [eax],al
000024A1  0000              add [eax],al
000024A3  0000              add [eax],al
000024A5  0000              add [eax],al
000024A7  0000              add [eax],al
000024A9  0000              add [eax],al
000024AB  0000              add [eax],al
000024AD  0000              add [eax],al
000024AF  0000              add [eax],al
000024B1  0000              add [eax],al
000024B3  0000              add [eax],al
000024B5  0000              add [eax],al
000024B7  0000              add [eax],al
000024B9  0000              add [eax],al
000024BB  0000              add [eax],al
000024BD  0000              add [eax],al
000024BF  0000              add [eax],al
000024C1  0000              add [eax],al
000024C3  0000              add [eax],al
000024C5  0000              add [eax],al
000024C7  0000              add [eax],al
000024C9  0000              add [eax],al
000024CB  0000              add [eax],al
000024CD  0000              add [eax],al
000024CF  0000              add [eax],al
000024D1  0000              add [eax],al
000024D3  0000              add [eax],al
000024D5  0000              add [eax],al
000024D7  0000              add [eax],al
000024D9  0000              add [eax],al
000024DB  0000              add [eax],al
000024DD  0000              add [eax],al
000024DF  0000              add [eax],al
000024E1  0000              add [eax],al
000024E3  0000              add [eax],al
000024E5  0000              add [eax],al
000024E7  0000              add [eax],al
000024E9  0000              add [eax],al
000024EB  0000              add [eax],al
000024ED  0000              add [eax],al
000024EF  0000              add [eax],al
000024F1  0000              add [eax],al
000024F3  0000              add [eax],al
000024F5  0000              add [eax],al
000024F7  0000              add [eax],al
000024F9  0000              add [eax],al
000024FB  0000              add [eax],al
000024FD  0000              add [eax],al
000024FF  0000              add [eax],al
00002501  0000              add [eax],al
00002503  0000              add [eax],al
00002505  0000              add [eax],al
00002507  0000              add [eax],al
00002509  0000              add [eax],al
0000250B  0000              add [eax],al
0000250D  0000              add [eax],al
0000250F  0000              add [eax],al
00002511  0000              add [eax],al
00002513  0000              add [eax],al
00002515  0000              add [eax],al
00002517  0000              add [eax],al
00002519  0000              add [eax],al
0000251B  0000              add [eax],al
0000251D  0000              add [eax],al
0000251F  0000              add [eax],al
00002521  0000              add [eax],al
00002523  0000              add [eax],al
00002525  0000              add [eax],al
00002527  0000              add [eax],al
00002529  0000              add [eax],al
0000252B  0000              add [eax],al
0000252D  0000              add [eax],al
0000252F  0000              add [eax],al
00002531  0000              add [eax],al
00002533  0000              add [eax],al
00002535  0000              add [eax],al
00002537  0000              add [eax],al
00002539  0000              add [eax],al
0000253B  0000              add [eax],al
0000253D  0000              add [eax],al
0000253F  0000              add [eax],al
00002541  0000              add [eax],al
00002543  0000              add [eax],al
00002545  0000              add [eax],al
00002547  0000              add [eax],al
00002549  0000              add [eax],al
0000254B  0000              add [eax],al
0000254D  0000              add [eax],al
0000254F  0000              add [eax],al
00002551  0000              add [eax],al
00002553  0000              add [eax],al
00002555  0000              add [eax],al
00002557  0000              add [eax],al
00002559  0000              add [eax],al
0000255B  0000              add [eax],al
0000255D  0000              add [eax],al
0000255F  0000              add [eax],al
00002561  0000              add [eax],al
00002563  0000              add [eax],al
00002565  0000              add [eax],al
00002567  0000              add [eax],al
00002569  0000              add [eax],al
0000256B  0000              add [eax],al
0000256D  0000              add [eax],al
0000256F  0000              add [eax],al
00002571  0000              add [eax],al
00002573  0000              add [eax],al
00002575  0000              add [eax],al
00002577  0000              add [eax],al
00002579  0000              add [eax],al
0000257B  0000              add [eax],al
0000257D  0000              add [eax],al
0000257F  0000              add [eax],al
00002581  0000              add [eax],al
00002583  0000              add [eax],al
00002585  0000              add [eax],al
00002587  0000              add [eax],al
00002589  0000              add [eax],al
0000258B  0000              add [eax],al
0000258D  0000              add [eax],al
0000258F  0000              add [eax],al
00002591  0000              add [eax],al
00002593  0000              add [eax],al
00002595  0000              add [eax],al
00002597  0000              add [eax],al
00002599  0000              add [eax],al
0000259B  0000              add [eax],al
0000259D  0000              add [eax],al
0000259F  0000              add [eax],al
000025A1  0000              add [eax],al
000025A3  0000              add [eax],al
000025A5  0000              add [eax],al
000025A7  0000              add [eax],al
000025A9  0000              add [eax],al
000025AB  0000              add [eax],al
000025AD  0000              add [eax],al
000025AF  0000              add [eax],al
000025B1  0000              add [eax],al
000025B3  0000              add [eax],al
000025B5  0000              add [eax],al
000025B7  0000              add [eax],al
000025B9  0000              add [eax],al
000025BB  0000              add [eax],al
000025BD  0000              add [eax],al
000025BF  0000              add [eax],al
000025C1  0000              add [eax],al
000025C3  0000              add [eax],al
000025C5  0000              add [eax],al
000025C7  0000              add [eax],al
000025C9  0000              add [eax],al
000025CB  0000              add [eax],al
000025CD  0000              add [eax],al
000025CF  0000              add [eax],al
000025D1  0000              add [eax],al
000025D3  0000              add [eax],al
000025D5  0000              add [eax],al
000025D7  0000              add [eax],al
000025D9  0000              add [eax],al
000025DB  0000              add [eax],al
000025DD  0000              add [eax],al
000025DF  0000              add [eax],al
000025E1  0000              add [eax],al
000025E3  0000              add [eax],al
000025E5  0000              add [eax],al
000025E7  0000              add [eax],al
000025E9  0000              add [eax],al
000025EB  0000              add [eax],al
000025ED  0000              add [eax],al
000025EF  0000              add [eax],al
000025F1  0000              add [eax],al
000025F3  0000              add [eax],al
000025F5  0000              add [eax],al
000025F7  0000              add [eax],al
000025F9  0000              add [eax],al
000025FB  0000              add [eax],al
000025FD  0000              add [eax],al
000025FF  0000              add [eax],al
00002601  0000              add [eax],al
00002603  0000              add [eax],al
00002605  0000              add [eax],al
00002607  0000              add [eax],al
00002609  0000              add [eax],al
0000260B  0000              add [eax],al
0000260D  0000              add [eax],al
0000260F  0000              add [eax],al
00002611  0000              add [eax],al
00002613  0000              add [eax],al
00002615  0000              add [eax],al
00002617  0000              add [eax],al
00002619  0000              add [eax],al
0000261B  0000              add [eax],al
0000261D  0000              add [eax],al
0000261F  0000              add [eax],al
00002621  0000              add [eax],al
00002623  0000              add [eax],al
00002625  0000              add [eax],al
00002627  0000              add [eax],al
00002629  0000              add [eax],al
0000262B  0000              add [eax],al
0000262D  0000              add [eax],al
0000262F  0000              add [eax],al
00002631  0000              add [eax],al
00002633  0000              add [eax],al
00002635  0000              add [eax],al
00002637  0000              add [eax],al
00002639  0000              add [eax],al
0000263B  0000              add [eax],al
0000263D  0000              add [eax],al
0000263F  0000              add [eax],al
00002641  0000              add [eax],al
00002643  0000              add [eax],al
00002645  0000              add [eax],al
00002647  0000              add [eax],al
00002649  0000              add [eax],al
0000264B  0000              add [eax],al
0000264D  0000              add [eax],al
0000264F  0000              add [eax],al
00002651  0000              add [eax],al
00002653  0000              add [eax],al
00002655  0000              add [eax],al
00002657  0000              add [eax],al
00002659  0000              add [eax],al
0000265B  0000              add [eax],al
0000265D  0000              add [eax],al
0000265F  0000              add [eax],al
00002661  0000              add [eax],al
00002663  0000              add [eax],al
00002665  0000              add [eax],al
00002667  0000              add [eax],al
00002669  0000              add [eax],al
0000266B  0000              add [eax],al
0000266D  0000              add [eax],al
0000266F  0000              add [eax],al
00002671  0000              add [eax],al
00002673  0000              add [eax],al
00002675  0000              add [eax],al
00002677  0000              add [eax],al
00002679  0000              add [eax],al
0000267B  0000              add [eax],al
0000267D  0000              add [eax],al
0000267F  0000              add [eax],al
00002681  0000              add [eax],al
00002683  0000              add [eax],al
00002685  0000              add [eax],al
00002687  0000              add [eax],al
00002689  0000              add [eax],al
0000268B  0000              add [eax],al
0000268D  0000              add [eax],al
0000268F  0000              add [eax],al
00002691  0000              add [eax],al
00002693  0000              add [eax],al
00002695  0000              add [eax],al
00002697  0000              add [eax],al
00002699  0000              add [eax],al
0000269B  0000              add [eax],al
0000269D  0000              add [eax],al
0000269F  0000              add [eax],al
000026A1  0000              add [eax],al
000026A3  0000              add [eax],al
000026A5  0000              add [eax],al
000026A7  0000              add [eax],al
000026A9  0000              add [eax],al
000026AB  0000              add [eax],al
000026AD  0000              add [eax],al
000026AF  0000              add [eax],al
000026B1  0000              add [eax],al
000026B3  0000              add [eax],al
000026B5  0000              add [eax],al
000026B7  0000              add [eax],al
000026B9  0000              add [eax],al
000026BB  0000              add [eax],al
000026BD  0000              add [eax],al
000026BF  0000              add [eax],al
000026C1  0000              add [eax],al
000026C3  0000              add [eax],al
000026C5  0000              add [eax],al
000026C7  0000              add [eax],al
000026C9  0000              add [eax],al
000026CB  0000              add [eax],al
000026CD  0000              add [eax],al
000026CF  0000              add [eax],al
000026D1  0000              add [eax],al
000026D3  0000              add [eax],al
000026D5  0000              add [eax],al
000026D7  0000              add [eax],al
000026D9  0000              add [eax],al
000026DB  0000              add [eax],al
000026DD  0000              add [eax],al
000026DF  0000              add [eax],al
000026E1  0000              add [eax],al
000026E3  0000              add [eax],al
000026E5  0000              add [eax],al
000026E7  0000              add [eax],al
000026E9  0000              add [eax],al
000026EB  0000              add [eax],al
000026ED  0000              add [eax],al
000026EF  0000              add [eax],al
000026F1  0000              add [eax],al
000026F3  0000              add [eax],al
000026F5  0000              add [eax],al
000026F7  0000              add [eax],al
000026F9  0000              add [eax],al
000026FB  0000              add [eax],al
000026FD  0000              add [eax],al
000026FF  0000              add [eax],al
00002701  0000              add [eax],al
00002703  0000              add [eax],al
00002705  0000              add [eax],al
00002707  0000              add [eax],al
00002709  0000              add [eax],al
0000270B  0000              add [eax],al
0000270D  0000              add [eax],al
0000270F  0000              add [eax],al
00002711  0000              add [eax],al
00002713  0000              add [eax],al
00002715  0000              add [eax],al
00002717  0000              add [eax],al
00002719  0000              add [eax],al
0000271B  0000              add [eax],al
0000271D  0000              add [eax],al
0000271F  0000              add [eax],al
00002721  0000              add [eax],al
00002723  0000              add [eax],al
00002725  0000              add [eax],al
00002727  0000              add [eax],al
00002729  0000              add [eax],al
0000272B  0000              add [eax],al
0000272D  0000              add [eax],al
0000272F  0000              add [eax],al
00002731  0000              add [eax],al
00002733  0000              add [eax],al
00002735  0000              add [eax],al
00002737  0000              add [eax],al
00002739  0000              add [eax],al
0000273B  0000              add [eax],al
0000273D  0000              add [eax],al
0000273F  0000              add [eax],al
00002741  0000              add [eax],al
00002743  0000              add [eax],al
00002745  0000              add [eax],al
00002747  0000              add [eax],al
00002749  0000              add [eax],al
0000274B  0000              add [eax],al
0000274D  0000              add [eax],al
0000274F  0000              add [eax],al
00002751  0000              add [eax],al
00002753  0000              add [eax],al
00002755  0000              add [eax],al
00002757  0000              add [eax],al
00002759  0000              add [eax],al
0000275B  0000              add [eax],al
0000275D  0000              add [eax],al
0000275F  0000              add [eax],al
00002761  0000              add [eax],al
00002763  0000              add [eax],al
00002765  0000              add [eax],al
00002767  0000              add [eax],al
00002769  0000              add [eax],al
0000276B  0000              add [eax],al
0000276D  0000              add [eax],al
0000276F  0000              add [eax],al
00002771  0000              add [eax],al
00002773  0000              add [eax],al
00002775  0000              add [eax],al
00002777  0000              add [eax],al
00002779  0000              add [eax],al
0000277B  0000              add [eax],al
0000277D  0000              add [eax],al
0000277F  0000              add [eax],al
00002781  0000              add [eax],al
00002783  0000              add [eax],al
00002785  0000              add [eax],al
00002787  0000              add [eax],al
00002789  0000              add [eax],al
0000278B  0000              add [eax],al
0000278D  0000              add [eax],al
0000278F  0000              add [eax],al
00002791  0000              add [eax],al
00002793  0000              add [eax],al
00002795  0000              add [eax],al
00002797  0000              add [eax],al
00002799  0000              add [eax],al
0000279B  0000              add [eax],al
0000279D  0000              add [eax],al
0000279F  0000              add [eax],al
000027A1  0000              add [eax],al
000027A3  0000              add [eax],al
000027A5  0000              add [eax],al
000027A7  0000              add [eax],al
000027A9  0000              add [eax],al
000027AB  0000              add [eax],al
000027AD  0000              add [eax],al
000027AF  0000              add [eax],al
000027B1  0000              add [eax],al
000027B3  0000              add [eax],al
000027B5  0000              add [eax],al
000027B7  0000              add [eax],al
000027B9  0000              add [eax],al
000027BB  0000              add [eax],al
000027BD  0000              add [eax],al
000027BF  0000              add [eax],al
000027C1  0000              add [eax],al
000027C3  0000              add [eax],al
000027C5  0000              add [eax],al
000027C7  0000              add [eax],al
000027C9  0000              add [eax],al
000027CB  0000              add [eax],al
000027CD  0000              add [eax],al
000027CF  0000              add [eax],al
000027D1  0000              add [eax],al
000027D3  0000              add [eax],al
000027D5  0000              add [eax],al
000027D7  0000              add [eax],al
000027D9  0000              add [eax],al
000027DB  0000              add [eax],al
000027DD  0000              add [eax],al
000027DF  0000              add [eax],al
000027E1  0000              add [eax],al
000027E3  0000              add [eax],al
000027E5  0000              add [eax],al
000027E7  0000              add [eax],al
000027E9  0000              add [eax],al
000027EB  0000              add [eax],al
000027ED  0000              add [eax],al
000027EF  0000              add [eax],al
000027F1  0000              add [eax],al
000027F3  0000              add [eax],al
000027F5  0000              add [eax],al
000027F7  0000              add [eax],al
000027F9  0000              add [eax],al
000027FB  0000              add [eax],al
000027FD  0000              add [eax],al
000027FF  0000              add [eax],al
00002801  0000              add [eax],al
00002803  0000              add [eax],al
00002805  0000              add [eax],al
00002807  0000              add [eax],al
00002809  0000              add [eax],al
0000280B  0000              add [eax],al
0000280D  0000              add [eax],al
0000280F  0000              add [eax],al
00002811  0000              add [eax],al
00002813  0000              add [eax],al
00002815  0000              add [eax],al
00002817  0000              add [eax],al
00002819  0000              add [eax],al
0000281B  0000              add [eax],al
0000281D  0000              add [eax],al
0000281F  0000              add [eax],al
00002821  0000              add [eax],al
00002823  0000              add [eax],al
00002825  0000              add [eax],al
00002827  0000              add [eax],al
00002829  0000              add [eax],al
0000282B  0000              add [eax],al
0000282D  0000              add [eax],al
0000282F  0000              add [eax],al
00002831  0000              add [eax],al
00002833  0000              add [eax],al
00002835  0000              add [eax],al
00002837  0000              add [eax],al
00002839  0000              add [eax],al
0000283B  0000              add [eax],al
0000283D  0000              add [eax],al
0000283F  0000              add [eax],al
00002841  0000              add [eax],al
00002843  0000              add [eax],al
00002845  0000              add [eax],al
00002847  0000              add [eax],al
00002849  0000              add [eax],al
0000284B  0000              add [eax],al
0000284D  0000              add [eax],al
0000284F  0000              add [eax],al
00002851  0000              add [eax],al
00002853  0000              add [eax],al
00002855  0000              add [eax],al
00002857  0000              add [eax],al
00002859  0000              add [eax],al
0000285B  0000              add [eax],al
0000285D  0000              add [eax],al
0000285F  0000              add [eax],al
00002861  0000              add [eax],al
00002863  0000              add [eax],al
00002865  0000              add [eax],al
00002867  0000              add [eax],al
00002869  0000              add [eax],al
0000286B  0000              add [eax],al
0000286D  0000              add [eax],al
0000286F  0000              add [eax],al
00002871  0000              add [eax],al
00002873  0000              add [eax],al
00002875  0000              add [eax],al
00002877  0000              add [eax],al
00002879  0000              add [eax],al
0000287B  0000              add [eax],al
0000287D  0000              add [eax],al
0000287F  0000              add [eax],al
00002881  0000              add [eax],al
00002883  0000              add [eax],al
00002885  0000              add [eax],al
00002887  0000              add [eax],al
00002889  0000              add [eax],al
0000288B  0000              add [eax],al
0000288D  0000              add [eax],al
0000288F  0000              add [eax],al
00002891  0000              add [eax],al
00002893  0000              add [eax],al
00002895  0000              add [eax],al
00002897  0000              add [eax],al
00002899  0000              add [eax],al
0000289B  0000              add [eax],al
0000289D  0000              add [eax],al
0000289F  0000              add [eax],al
000028A1  0000              add [eax],al
000028A3  0000              add [eax],al
000028A5  0000              add [eax],al
000028A7  0000              add [eax],al
000028A9  0000              add [eax],al
000028AB  0000              add [eax],al
000028AD  0000              add [eax],al
000028AF  0000              add [eax],al
000028B1  0000              add [eax],al
000028B3  0000              add [eax],al
000028B5  0000              add [eax],al
000028B7  0000              add [eax],al
000028B9  0000              add [eax],al
000028BB  0000              add [eax],al
000028BD  0000              add [eax],al
000028BF  0000              add [eax],al
000028C1  0000              add [eax],al
000028C3  0000              add [eax],al
000028C5  0000              add [eax],al
000028C7  0000              add [eax],al
000028C9  0000              add [eax],al
000028CB  0000              add [eax],al
000028CD  0000              add [eax],al
000028CF  0000              add [eax],al
000028D1  0000              add [eax],al
000028D3  0000              add [eax],al
000028D5  0000              add [eax],al
000028D7  0000              add [eax],al
000028D9  0000              add [eax],al
000028DB  0000              add [eax],al
000028DD  0000              add [eax],al
000028DF  0000              add [eax],al
000028E1  0000              add [eax],al
000028E3  0000              add [eax],al
000028E5  0000              add [eax],al
000028E7  0000              add [eax],al
000028E9  0000              add [eax],al
000028EB  0000              add [eax],al
000028ED  0000              add [eax],al
000028EF  0000              add [eax],al
000028F1  0000              add [eax],al
000028F3  0000              add [eax],al
000028F5  0000              add [eax],al
000028F7  0000              add [eax],al
000028F9  0000              add [eax],al
000028FB  0000              add [eax],al
000028FD  0000              add [eax],al
000028FF  0000              add [eax],al
00002901  0000              add [eax],al
00002903  0000              add [eax],al
00002905  0000              add [eax],al
00002907  0000              add [eax],al
00002909  0000              add [eax],al
0000290B  0000              add [eax],al
0000290D  0000              add [eax],al
0000290F  0000              add [eax],al
00002911  0000              add [eax],al
00002913  0000              add [eax],al
00002915  0000              add [eax],al
00002917  0000              add [eax],al
00002919  0000              add [eax],al
0000291B  0000              add [eax],al
0000291D  0000              add [eax],al
0000291F  0000              add [eax],al
00002921  0000              add [eax],al
00002923  0000              add [eax],al
00002925  0000              add [eax],al
00002927  0000              add [eax],al
00002929  0000              add [eax],al
0000292B  0000              add [eax],al
0000292D  0000              add [eax],al
0000292F  0000              add [eax],al
00002931  0000              add [eax],al
00002933  0000              add [eax],al
00002935  0000              add [eax],al
00002937  0000              add [eax],al
00002939  0000              add [eax],al
0000293B  0000              add [eax],al
0000293D  0000              add [eax],al
0000293F  0000              add [eax],al
00002941  0000              add [eax],al
00002943  0000              add [eax],al
00002945  0000              add [eax],al
00002947  0000              add [eax],al
00002949  0000              add [eax],al
0000294B  0000              add [eax],al
0000294D  0000              add [eax],al
0000294F  0000              add [eax],al
00002951  0000              add [eax],al
00002953  0000              add [eax],al
00002955  0000              add [eax],al
00002957  0000              add [eax],al
00002959  0000              add [eax],al
0000295B  0000              add [eax],al
0000295D  0000              add [eax],al
0000295F  0000              add [eax],al
00002961  0000              add [eax],al
00002963  0000              add [eax],al
00002965  0000              add [eax],al
00002967  0000              add [eax],al
00002969  0000              add [eax],al
0000296B  0000              add [eax],al
0000296D  0000              add [eax],al
0000296F  0000              add [eax],al
00002971  0000              add [eax],al
00002973  0000              add [eax],al
00002975  0000              add [eax],al
00002977  0000              add [eax],al
00002979  0000              add [eax],al
0000297B  0000              add [eax],al
0000297D  0000              add [eax],al
0000297F  0000              add [eax],al
00002981  0000              add [eax],al
00002983  0000              add [eax],al
00002985  0000              add [eax],al
00002987  0000              add [eax],al
00002989  0000              add [eax],al
0000298B  0000              add [eax],al
0000298D  0000              add [eax],al
0000298F  0000              add [eax],al
00002991  0000              add [eax],al
00002993  0000              add [eax],al
00002995  0000              add [eax],al
00002997  0000              add [eax],al
00002999  0000              add [eax],al
0000299B  0000              add [eax],al
0000299D  0000              add [eax],al
0000299F  0000              add [eax],al
000029A1  0000              add [eax],al
000029A3  0000              add [eax],al
000029A5  0000              add [eax],al
000029A7  0000              add [eax],al
000029A9  0000              add [eax],al
000029AB  0000              add [eax],al
000029AD  0000              add [eax],al
000029AF  0000              add [eax],al
000029B1  0000              add [eax],al
000029B3  0000              add [eax],al
000029B5  0000              add [eax],al
000029B7  0000              add [eax],al
000029B9  0000              add [eax],al
000029BB  0000              add [eax],al
000029BD  0000              add [eax],al
000029BF  0000              add [eax],al
000029C1  0000              add [eax],al
000029C3  0000              add [eax],al
000029C5  0000              add [eax],al
000029C7  0000              add [eax],al
000029C9  0000              add [eax],al
000029CB  0000              add [eax],al
000029CD  0000              add [eax],al
000029CF  0000              add [eax],al
000029D1  0000              add [eax],al
000029D3  0000              add [eax],al
000029D5  0000              add [eax],al
000029D7  0000              add [eax],al
000029D9  0000              add [eax],al
000029DB  0000              add [eax],al
000029DD  0000              add [eax],al
000029DF  0000              add [eax],al
000029E1  0000              add [eax],al
000029E3  0000              add [eax],al
000029E5  0000              add [eax],al
000029E7  0000              add [eax],al
000029E9  0000              add [eax],al
000029EB  0000              add [eax],al
000029ED  0000              add [eax],al
000029EF  0000              add [eax],al
000029F1  0000              add [eax],al
000029F3  0000              add [eax],al
000029F5  0000              add [eax],al
000029F7  0000              add [eax],al
000029F9  0000              add [eax],al
000029FB  0000              add [eax],al
000029FD  0000              add [eax],al
000029FF  0000              add [eax],al
00002A01  0000              add [eax],al
00002A03  0000              add [eax],al
00002A05  0000              add [eax],al
00002A07  0000              add [eax],al
00002A09  0000              add [eax],al
00002A0B  0000              add [eax],al
00002A0D  0000              add [eax],al
00002A0F  0000              add [eax],al
00002A11  0000              add [eax],al
00002A13  0000              add [eax],al
00002A15  0000              add [eax],al
00002A17  0000              add [eax],al
00002A19  0000              add [eax],al
00002A1B  0000              add [eax],al
00002A1D  0000              add [eax],al
00002A1F  0000              add [eax],al
00002A21  0000              add [eax],al
00002A23  0000              add [eax],al
00002A25  0000              add [eax],al
00002A27  0000              add [eax],al
00002A29  0000              add [eax],al
00002A2B  0000              add [eax],al
00002A2D  0000              add [eax],al
00002A2F  0000              add [eax],al
00002A31  0000              add [eax],al
00002A33  0000              add [eax],al
00002A35  0000              add [eax],al
00002A37  0000              add [eax],al
00002A39  0000              add [eax],al
00002A3B  0000              add [eax],al
00002A3D  0000              add [eax],al
00002A3F  0000              add [eax],al
00002A41  0000              add [eax],al
00002A43  0000              add [eax],al
00002A45  0000              add [eax],al
00002A47  0000              add [eax],al
00002A49  0000              add [eax],al
00002A4B  0000              add [eax],al
00002A4D  0000              add [eax],al
00002A4F  0000              add [eax],al
00002A51  0000              add [eax],al
00002A53  0000              add [eax],al
00002A55  0000              add [eax],al
00002A57  0000              add [eax],al
00002A59  0000              add [eax],al
00002A5B  0000              add [eax],al
00002A5D  0000              add [eax],al
00002A5F  0000              add [eax],al
00002A61  0000              add [eax],al
00002A63  0000              add [eax],al
00002A65  0000              add [eax],al
00002A67  0000              add [eax],al
00002A69  0000              add [eax],al
00002A6B  0000              add [eax],al
00002A6D  0000              add [eax],al
00002A6F  0000              add [eax],al
00002A71  0000              add [eax],al
00002A73  0000              add [eax],al
00002A75  0000              add [eax],al
00002A77  0000              add [eax],al
00002A79  0000              add [eax],al
00002A7B  0000              add [eax],al
00002A7D  0000              add [eax],al
00002A7F  0000              add [eax],al
00002A81  0000              add [eax],al
00002A83  0000              add [eax],al
00002A85  0000              add [eax],al
00002A87  0000              add [eax],al
00002A89  0000              add [eax],al
00002A8B  0000              add [eax],al
00002A8D  0000              add [eax],al
00002A8F  0000              add [eax],al
00002A91  0000              add [eax],al
00002A93  0000              add [eax],al
00002A95  0000              add [eax],al
00002A97  0000              add [eax],al
00002A99  0000              add [eax],al
00002A9B  0000              add [eax],al
00002A9D  0000              add [eax],al
00002A9F  0000              add [eax],al
00002AA1  0000              add [eax],al
00002AA3  0000              add [eax],al
00002AA5  0000              add [eax],al
00002AA7  0000              add [eax],al
00002AA9  0000              add [eax],al
00002AAB  0000              add [eax],al
00002AAD  0000              add [eax],al
00002AAF  0000              add [eax],al
00002AB1  0000              add [eax],al
00002AB3  0000              add [eax],al
00002AB5  0000              add [eax],al
00002AB7  0000              add [eax],al
00002AB9  0000              add [eax],al
00002ABB  0000              add [eax],al
00002ABD  0000              add [eax],al
00002ABF  0000              add [eax],al
00002AC1  0000              add [eax],al
00002AC3  0000              add [eax],al
00002AC5  0000              add [eax],al
00002AC7  0000              add [eax],al
00002AC9  0000              add [eax],al
00002ACB  0000              add [eax],al
00002ACD  0000              add [eax],al
00002ACF  0000              add [eax],al
00002AD1  0000              add [eax],al
00002AD3  0000              add [eax],al
00002AD5  0000              add [eax],al
00002AD7  0000              add [eax],al
00002AD9  0000              add [eax],al
00002ADB  0000              add [eax],al
00002ADD  0000              add [eax],al
00002ADF  0000              add [eax],al
00002AE1  0000              add [eax],al
00002AE3  0000              add [eax],al
00002AE5  0000              add [eax],al
00002AE7  0000              add [eax],al
00002AE9  0000              add [eax],al
00002AEB  0000              add [eax],al
00002AED  0000              add [eax],al
00002AEF  0000              add [eax],al
00002AF1  0000              add [eax],al
00002AF3  0000              add [eax],al
00002AF5  0000              add [eax],al
00002AF7  0000              add [eax],al
00002AF9  0000              add [eax],al
00002AFB  0000              add [eax],al
00002AFD  0000              add [eax],al
00002AFF  0000              add [eax],al
00002B01  0000              add [eax],al
00002B03  0000              add [eax],al
00002B05  0000              add [eax],al
00002B07  0000              add [eax],al
00002B09  0000              add [eax],al
00002B0B  0000              add [eax],al
00002B0D  0000              add [eax],al
00002B0F  0000              add [eax],al
00002B11  0000              add [eax],al
00002B13  0000              add [eax],al
00002B15  0000              add [eax],al
00002B17  0000              add [eax],al
00002B19  0000              add [eax],al
00002B1B  0000              add [eax],al
00002B1D  0000              add [eax],al
00002B1F  0000              add [eax],al
00002B21  0000              add [eax],al
00002B23  0000              add [eax],al
00002B25  0000              add [eax],al
00002B27  0000              add [eax],al
00002B29  0000              add [eax],al
00002B2B  0000              add [eax],al
00002B2D  0000              add [eax],al
00002B2F  0000              add [eax],al
00002B31  0000              add [eax],al
00002B33  0000              add [eax],al
00002B35  0000              add [eax],al
00002B37  0000              add [eax],al
00002B39  0000              add [eax],al
00002B3B  0000              add [eax],al
00002B3D  0000              add [eax],al
00002B3F  0000              add [eax],al
00002B41  0000              add [eax],al
00002B43  0000              add [eax],al
00002B45  0000              add [eax],al
00002B47  0000              add [eax],al
00002B49  0000              add [eax],al
00002B4B  0000              add [eax],al
00002B4D  0000              add [eax],al
00002B4F  0000              add [eax],al
00002B51  0000              add [eax],al
00002B53  0000              add [eax],al
00002B55  0000              add [eax],al
00002B57  0000              add [eax],al
00002B59  0000              add [eax],al
00002B5B  0000              add [eax],al
00002B5D  0000              add [eax],al
00002B5F  0000              add [eax],al
00002B61  0000              add [eax],al
00002B63  0000              add [eax],al
00002B65  0000              add [eax],al
00002B67  0000              add [eax],al
00002B69  0000              add [eax],al
00002B6B  0000              add [eax],al
00002B6D  0000              add [eax],al
00002B6F  0000              add [eax],al
00002B71  0000              add [eax],al
00002B73  0000              add [eax],al
00002B75  0000              add [eax],al
00002B77  0000              add [eax],al
00002B79  0000              add [eax],al
00002B7B  0000              add [eax],al
00002B7D  0000              add [eax],al
00002B7F  0000              add [eax],al
00002B81  0000              add [eax],al
00002B83  0000              add [eax],al
00002B85  0000              add [eax],al
00002B87  0000              add [eax],al
00002B89  0000              add [eax],al
00002B8B  0000              add [eax],al
00002B8D  0000              add [eax],al
00002B8F  0000              add [eax],al
00002B91  0000              add [eax],al
00002B93  0000              add [eax],al
00002B95  0000              add [eax],al
00002B97  0000              add [eax],al
00002B99  0000              add [eax],al
00002B9B  0000              add [eax],al
00002B9D  0000              add [eax],al
00002B9F  0000              add [eax],al
00002BA1  0000              add [eax],al
00002BA3  0000              add [eax],al
00002BA5  0000              add [eax],al
00002BA7  0000              add [eax],al
00002BA9  0000              add [eax],al
00002BAB  0000              add [eax],al
00002BAD  0000              add [eax],al
00002BAF  0000              add [eax],al
00002BB1  0000              add [eax],al
00002BB3  0000              add [eax],al
00002BB5  0000              add [eax],al
00002BB7  0000              add [eax],al
00002BB9  0000              add [eax],al
00002BBB  0000              add [eax],al
00002BBD  0000              add [eax],al
00002BBF  0000              add [eax],al
00002BC1  0000              add [eax],al
00002BC3  0000              add [eax],al
00002BC5  0000              add [eax],al
00002BC7  0000              add [eax],al
00002BC9  0000              add [eax],al
00002BCB  0000              add [eax],al
00002BCD  0000              add [eax],al
00002BCF  0000              add [eax],al
00002BD1  0000              add [eax],al
00002BD3  0000              add [eax],al
00002BD5  0000              add [eax],al
00002BD7  0000              add [eax],al
00002BD9  0000              add [eax],al
00002BDB  0000              add [eax],al
00002BDD  0000              add [eax],al
00002BDF  0000              add [eax],al
00002BE1  0000              add [eax],al
00002BE3  0000              add [eax],al
00002BE5  0000              add [eax],al
00002BE7  0000              add [eax],al
00002BE9  0000              add [eax],al
00002BEB  0000              add [eax],al
00002BED  0000              add [eax],al
00002BEF  0000              add [eax],al
00002BF1  0000              add [eax],al
00002BF3  0000              add [eax],al
00002BF5  0000              add [eax],al
00002BF7  0000              add [eax],al
00002BF9  0000              add [eax],al
00002BFB  0000              add [eax],al
00002BFD  0000              add [eax],al
00002BFF  0000              add [eax],al
00002C01  0000              add [eax],al
00002C03  0000              add [eax],al
00002C05  0000              add [eax],al
00002C07  0000              add [eax],al
00002C09  0000              add [eax],al
00002C0B  0000              add [eax],al
00002C0D  0000              add [eax],al
00002C0F  0000              add [eax],al
00002C11  0000              add [eax],al
00002C13  0000              add [eax],al
00002C15  0000              add [eax],al
00002C17  0000              add [eax],al
00002C19  0000              add [eax],al
00002C1B  0000              add [eax],al
00002C1D  0000              add [eax],al
00002C1F  0000              add [eax],al
00002C21  0000              add [eax],al
00002C23  0000              add [eax],al
00002C25  0000              add [eax],al
00002C27  0000              add [eax],al
00002C29  0000              add [eax],al
00002C2B  0000              add [eax],al
00002C2D  0000              add [eax],al
00002C2F  0000              add [eax],al
00002C31  0000              add [eax],al
00002C33  0000              add [eax],al
00002C35  0000              add [eax],al
00002C37  0000              add [eax],al
00002C39  0000              add [eax],al
00002C3B  0000              add [eax],al
00002C3D  0000              add [eax],al
00002C3F  0000              add [eax],al
00002C41  0000              add [eax],al
00002C43  0000              add [eax],al
00002C45  0000              add [eax],al
00002C47  0000              add [eax],al
00002C49  0000              add [eax],al
00002C4B  0000              add [eax],al
00002C4D  0000              add [eax],al
00002C4F  0000              add [eax],al
00002C51  0000              add [eax],al
00002C53  0000              add [eax],al
00002C55  0000              add [eax],al
00002C57  0000              add [eax],al
00002C59  0000              add [eax],al
00002C5B  0000              add [eax],al
00002C5D  0000              add [eax],al
00002C5F  0000              add [eax],al
00002C61  0000              add [eax],al
00002C63  0000              add [eax],al
00002C65  0000              add [eax],al
00002C67  0000              add [eax],al
00002C69  0000              add [eax],al
00002C6B  0000              add [eax],al
00002C6D  0000              add [eax],al
00002C6F  0000              add [eax],al
00002C71  0000              add [eax],al
00002C73  0000              add [eax],al
00002C75  0000              add [eax],al
00002C77  0000              add [eax],al
00002C79  0000              add [eax],al
00002C7B  0000              add [eax],al
00002C7D  0000              add [eax],al
00002C7F  0000              add [eax],al
00002C81  0000              add [eax],al
00002C83  0000              add [eax],al
00002C85  0000              add [eax],al
00002C87  0000              add [eax],al
00002C89  0000              add [eax],al
00002C8B  0000              add [eax],al
00002C8D  0000              add [eax],al
00002C8F  0000              add [eax],al
00002C91  0000              add [eax],al
00002C93  0000              add [eax],al
00002C95  0000              add [eax],al
00002C97  0000              add [eax],al
00002C99  0000              add [eax],al
00002C9B  0000              add [eax],al
00002C9D  0000              add [eax],al
00002C9F  0000              add [eax],al
00002CA1  0000              add [eax],al
00002CA3  0000              add [eax],al
00002CA5  0000              add [eax],al
00002CA7  0000              add [eax],al
00002CA9  0000              add [eax],al
00002CAB  0000              add [eax],al
00002CAD  0000              add [eax],al
00002CAF  0000              add [eax],al
00002CB1  0000              add [eax],al
00002CB3  0000              add [eax],al
00002CB5  0000              add [eax],al
00002CB7  0000              add [eax],al
00002CB9  0000              add [eax],al
00002CBB  0000              add [eax],al
00002CBD  0000              add [eax],al
00002CBF  0000              add [eax],al
00002CC1  0000              add [eax],al
00002CC3  0000              add [eax],al
00002CC5  0000              add [eax],al
00002CC7  0000              add [eax],al
00002CC9  0000              add [eax],al
00002CCB  0000              add [eax],al
00002CCD  0000              add [eax],al
00002CCF  0000              add [eax],al
00002CD1  0000              add [eax],al
00002CD3  0000              add [eax],al
00002CD5  0000              add [eax],al
00002CD7  0000              add [eax],al
00002CD9  0000              add [eax],al
00002CDB  0000              add [eax],al
00002CDD  0000              add [eax],al
00002CDF  0000              add [eax],al
00002CE1  0000              add [eax],al
00002CE3  0000              add [eax],al
00002CE5  0000              add [eax],al
00002CE7  0000              add [eax],al
00002CE9  0000              add [eax],al
00002CEB  0000              add [eax],al
00002CED  0000              add [eax],al
00002CEF  0000              add [eax],al
00002CF1  0000              add [eax],al
00002CF3  0000              add [eax],al
00002CF5  0000              add [eax],al
00002CF7  0000              add [eax],al
00002CF9  0000              add [eax],al
00002CFB  0000              add [eax],al
00002CFD  0000              add [eax],al
00002CFF  0000              add [eax],al
00002D01  0000              add [eax],al
00002D03  0000              add [eax],al
00002D05  0000              add [eax],al
00002D07  0000              add [eax],al
00002D09  0000              add [eax],al
00002D0B  0000              add [eax],al
00002D0D  0000              add [eax],al
00002D0F  0000              add [eax],al
00002D11  0000              add [eax],al
00002D13  0000              add [eax],al
00002D15  0000              add [eax],al
00002D17  0000              add [eax],al
00002D19  0000              add [eax],al
00002D1B  0000              add [eax],al
00002D1D  0000              add [eax],al
00002D1F  0000              add [eax],al
00002D21  0000              add [eax],al
00002D23  0000              add [eax],al
00002D25  0000              add [eax],al
00002D27  0000              add [eax],al
00002D29  0000              add [eax],al
00002D2B  0000              add [eax],al
00002D2D  0000              add [eax],al
00002D2F  0000              add [eax],al
00002D31  0000              add [eax],al
00002D33  0000              add [eax],al
00002D35  0000              add [eax],al
00002D37  0000              add [eax],al
00002D39  0000              add [eax],al
00002D3B  0000              add [eax],al
00002D3D  0000              add [eax],al
00002D3F  0000              add [eax],al
00002D41  0000              add [eax],al
00002D43  0000              add [eax],al
00002D45  0000              add [eax],al
00002D47  0000              add [eax],al
00002D49  0000              add [eax],al
00002D4B  0000              add [eax],al
00002D4D  0000              add [eax],al
00002D4F  0000              add [eax],al
00002D51  0000              add [eax],al
00002D53  0000              add [eax],al
00002D55  0000              add [eax],al
00002D57  0000              add [eax],al
00002D59  0000              add [eax],al
00002D5B  0000              add [eax],al
00002D5D  0000              add [eax],al
00002D5F  0000              add [eax],al
00002D61  0000              add [eax],al
00002D63  0000              add [eax],al
00002D65  0000              add [eax],al
00002D67  0000              add [eax],al
00002D69  0000              add [eax],al
00002D6B  0000              add [eax],al
00002D6D  0000              add [eax],al
00002D6F  0000              add [eax],al
00002D71  0000              add [eax],al
00002D73  0000              add [eax],al
00002D75  0000              add [eax],al
00002D77  0000              add [eax],al
00002D79  0000              add [eax],al
00002D7B  0000              add [eax],al
00002D7D  0000              add [eax],al
00002D7F  0000              add [eax],al
00002D81  0000              add [eax],al
00002D83  0000              add [eax],al
00002D85  0000              add [eax],al
00002D87  0000              add [eax],al
00002D89  0000              add [eax],al
00002D8B  0000              add [eax],al
00002D8D  0000              add [eax],al
00002D8F  0000              add [eax],al
00002D91  0000              add [eax],al
00002D93  0000              add [eax],al
00002D95  0000              add [eax],al
00002D97  0000              add [eax],al
00002D99  0000              add [eax],al
00002D9B  0000              add [eax],al
00002D9D  0000              add [eax],al
00002D9F  0000              add [eax],al
00002DA1  0000              add [eax],al
00002DA3  0000              add [eax],al
00002DA5  0000              add [eax],al
00002DA7  0000              add [eax],al
00002DA9  0000              add [eax],al
00002DAB  0000              add [eax],al
00002DAD  0000              add [eax],al
00002DAF  0000              add [eax],al
00002DB1  0000              add [eax],al
00002DB3  0000              add [eax],al
00002DB5  0000              add [eax],al
00002DB7  0000              add [eax],al
00002DB9  0000              add [eax],al
00002DBB  0000              add [eax],al
00002DBD  0000              add [eax],al
00002DBF  0000              add [eax],al
00002DC1  0000              add [eax],al
00002DC3  0000              add [eax],al
00002DC5  0000              add [eax],al
00002DC7  0000              add [eax],al
00002DC9  0000              add [eax],al
00002DCB  0000              add [eax],al
00002DCD  0000              add [eax],al
00002DCF  0000              add [eax],al
00002DD1  0000              add [eax],al
00002DD3  0000              add [eax],al
00002DD5  0000              add [eax],al
00002DD7  0000              add [eax],al
00002DD9  0000              add [eax],al
00002DDB  0000              add [eax],al
00002DDD  0000              add [eax],al
00002DDF  0000              add [eax],al
00002DE1  0000              add [eax],al
00002DE3  0000              add [eax],al
00002DE5  0000              add [eax],al
00002DE7  0000              add [eax],al
00002DE9  0000              add [eax],al
00002DEB  0000              add [eax],al
00002DED  0000              add [eax],al
00002DEF  0000              add [eax],al
00002DF1  0000              add [eax],al
00002DF3  0000              add [eax],al
00002DF5  0000              add [eax],al
00002DF7  0000              add [eax],al
00002DF9  0000              add [eax],al
00002DFB  0000              add [eax],al
00002DFD  0000              add [eax],al
00002DFF  0000              add [eax],al
00002E01  0000              add [eax],al
00002E03  0000              add [eax],al
00002E05  0000              add [eax],al
00002E07  0000              add [eax],al
00002E09  0000              add [eax],al
00002E0B  0000              add [eax],al
00002E0D  0000              add [eax],al
00002E0F  0000              add [eax],al
00002E11  0000              add [eax],al
00002E13  0000              add [eax],al
00002E15  0000              add [eax],al
00002E17  0000              add [eax],al
00002E19  0000              add [eax],al
00002E1B  0000              add [eax],al
00002E1D  0000              add [eax],al
00002E1F  0000              add [eax],al
00002E21  0000              add [eax],al
00002E23  0000              add [eax],al
00002E25  0000              add [eax],al
00002E27  0000              add [eax],al
00002E29  0000              add [eax],al
00002E2B  0000              add [eax],al
00002E2D  0000              add [eax],al
00002E2F  0000              add [eax],al
00002E31  0000              add [eax],al
00002E33  0000              add [eax],al
00002E35  0000              add [eax],al
00002E37  0000              add [eax],al
00002E39  0000              add [eax],al
00002E3B  0000              add [eax],al
00002E3D  0000              add [eax],al
00002E3F  0000              add [eax],al
00002E41  0000              add [eax],al
00002E43  0000              add [eax],al
00002E45  0000              add [eax],al
00002E47  0000              add [eax],al
00002E49  0000              add [eax],al
00002E4B  0000              add [eax],al
00002E4D  0000              add [eax],al
00002E4F  0000              add [eax],al
00002E51  0000              add [eax],al
00002E53  0000              add [eax],al
00002E55  0000              add [eax],al
00002E57  0000              add [eax],al
00002E59  0000              add [eax],al
00002E5B  0000              add [eax],al
00002E5D  0000              add [eax],al
00002E5F  0000              add [eax],al
00002E61  0000              add [eax],al
00002E63  0000              add [eax],al
00002E65  0000              add [eax],al
00002E67  0000              add [eax],al
00002E69  0000              add [eax],al
00002E6B  0000              add [eax],al
00002E6D  0000              add [eax],al
00002E6F  0000              add [eax],al
00002E71  0000              add [eax],al
00002E73  0000              add [eax],al
00002E75  0000              add [eax],al
00002E77  0000              add [eax],al
00002E79  0000              add [eax],al
00002E7B  0000              add [eax],al
00002E7D  0000              add [eax],al
00002E7F  0000              add [eax],al
00002E81  0000              add [eax],al
00002E83  0000              add [eax],al
00002E85  0000              add [eax],al
00002E87  0000              add [eax],al
00002E89  0000              add [eax],al
00002E8B  0000              add [eax],al
00002E8D  0000              add [eax],al
00002E8F  0000              add [eax],al
00002E91  0000              add [eax],al
00002E93  0000              add [eax],al
00002E95  0000              add [eax],al
00002E97  0000              add [eax],al
00002E99  0000              add [eax],al
00002E9B  0000              add [eax],al
00002E9D  0000              add [eax],al
00002E9F  0000              add [eax],al
00002EA1  0000              add [eax],al
00002EA3  0000              add [eax],al
00002EA5  0000              add [eax],al
00002EA7  0000              add [eax],al
00002EA9  0000              add [eax],al
00002EAB  0000              add [eax],al
00002EAD  0000              add [eax],al
00002EAF  0000              add [eax],al
00002EB1  0000              add [eax],al
00002EB3  0000              add [eax],al
00002EB5  0000              add [eax],al
00002EB7  0000              add [eax],al
00002EB9  0000              add [eax],al
00002EBB  0000              add [eax],al
00002EBD  0000              add [eax],al
00002EBF  0000              add [eax],al
00002EC1  0000              add [eax],al
00002EC3  0000              add [eax],al
00002EC5  0000              add [eax],al
00002EC7  0000              add [eax],al
00002EC9  0000              add [eax],al
00002ECB  0000              add [eax],al
00002ECD  0000              add [eax],al
00002ECF  0000              add [eax],al
00002ED1  0000              add [eax],al
00002ED3  0000              add [eax],al
00002ED5  0000              add [eax],al
00002ED7  0000              add [eax],al
00002ED9  0000              add [eax],al
00002EDB  0000              add [eax],al
00002EDD  0000              add [eax],al
00002EDF  0000              add [eax],al
00002EE1  0000              add [eax],al
00002EE3  0000              add [eax],al
00002EE5  0000              add [eax],al
00002EE7  0000              add [eax],al
00002EE9  0000              add [eax],al
00002EEB  0000              add [eax],al
00002EED  0000              add [eax],al
00002EEF  0000              add [eax],al
00002EF1  0000              add [eax],al
00002EF3  0000              add [eax],al
00002EF5  0000              add [eax],al
00002EF7  0000              add [eax],al
00002EF9  0000              add [eax],al
00002EFB  0000              add [eax],al
00002EFD  0000              add [eax],al
00002EFF  0000              add [eax],al
00002F01  0000              add [eax],al
00002F03  0000              add [eax],al
00002F05  0000              add [eax],al
00002F07  0000              add [eax],al
00002F09  0000              add [eax],al
00002F0B  0000              add [eax],al
00002F0D  0000              add [eax],al
00002F0F  0000              add [eax],al
00002F11  0000              add [eax],al
00002F13  0000              add [eax],al
00002F15  0000              add [eax],al
00002F17  0000              add [eax],al
00002F19  0000              add [eax],al
00002F1B  0000              add [eax],al
00002F1D  0000              add [eax],al
00002F1F  0000              add [eax],al
00002F21  0000              add [eax],al
00002F23  0000              add [eax],al
00002F25  0000              add [eax],al
00002F27  0000              add [eax],al
00002F29  0000              add [eax],al
00002F2B  0000              add [eax],al
00002F2D  0000              add [eax],al
00002F2F  0000              add [eax],al
00002F31  0000              add [eax],al
00002F33  0000              add [eax],al
00002F35  0000              add [eax],al
00002F37  0000              add [eax],al
00002F39  0000              add [eax],al
00002F3B  0000              add [eax],al
00002F3D  0000              add [eax],al
00002F3F  0000              add [eax],al
00002F41  0000              add [eax],al
00002F43  0000              add [eax],al
00002F45  0000              add [eax],al
00002F47  0000              add [eax],al
00002F49  0000              add [eax],al
00002F4B  0000              add [eax],al
00002F4D  0000              add [eax],al
00002F4F  0000              add [eax],al
00002F51  0000              add [eax],al
00002F53  0000              add [eax],al
00002F55  0000              add [eax],al
00002F57  0000              add [eax],al
00002F59  0000              add [eax],al
00002F5B  0000              add [eax],al
00002F5D  0000              add [eax],al
00002F5F  0000              add [eax],al
00002F61  0000              add [eax],al
00002F63  0000              add [eax],al
00002F65  0000              add [eax],al
00002F67  0000              add [eax],al
00002F69  0000              add [eax],al
00002F6B  0000              add [eax],al
00002F6D  0000              add [eax],al
00002F6F  0000              add [eax],al
00002F71  0000              add [eax],al
00002F73  0000              add [eax],al
00002F75  0000              add [eax],al
00002F77  0000              add [eax],al
00002F79  0000              add [eax],al
00002F7B  0000              add [eax],al
00002F7D  0000              add [eax],al
00002F7F  0000              add [eax],al
00002F81  0000              add [eax],al
00002F83  0000              add [eax],al
00002F85  0000              add [eax],al
00002F87  0000              add [eax],al
00002F89  0000              add [eax],al
00002F8B  0000              add [eax],al
00002F8D  0000              add [eax],al
00002F8F  0000              add [eax],al
00002F91  0000              add [eax],al
00002F93  0000              add [eax],al
00002F95  0000              add [eax],al
00002F97  0000              add [eax],al
00002F99  0000              add [eax],al
00002F9B  0000              add [eax],al
00002F9D  0000              add [eax],al
00002F9F  0000              add [eax],al
00002FA1  0000              add [eax],al
00002FA3  0000              add [eax],al
00002FA5  0000              add [eax],al
00002FA7  0000              add [eax],al
00002FA9  0000              add [eax],al
00002FAB  0000              add [eax],al
00002FAD  0000              add [eax],al
00002FAF  0000              add [eax],al
00002FB1  0000              add [eax],al
00002FB3  0000              add [eax],al
00002FB5  0000              add [eax],al
00002FB7  0000              add [eax],al
00002FB9  0000              add [eax],al
00002FBB  0000              add [eax],al
00002FBD  0000              add [eax],al
00002FBF  0000              add [eax],al
00002FC1  0000              add [eax],al
00002FC3  0000              add [eax],al
00002FC5  0000              add [eax],al
00002FC7  0000              add [eax],al
00002FC9  0000              add [eax],al
00002FCB  0000              add [eax],al
00002FCD  0000              add [eax],al
00002FCF  0000              add [eax],al
00002FD1  0000              add [eax],al
00002FD3  0000              add [eax],al
00002FD5  0000              add [eax],al
00002FD7  0000              add [eax],al
00002FD9  0000              add [eax],al
00002FDB  0000              add [eax],al
00002FDD  0000              add [eax],al
00002FDF  0000              add [eax],al
00002FE1  0000              add [eax],al
00002FE3  0000              add [eax],al
00002FE5  0000              add [eax],al
00002FE7  0000              add [eax],al
00002FE9  0000              add [eax],al
00002FEB  0000              add [eax],al
00002FED  0000              add [eax],al
00002FEF  0000              add [eax],al
00002FF1  0000              add [eax],al
00002FF3  0000              add [eax],al
00002FF5  0000              add [eax],al
00002FF7  0000              add [eax],al
00002FF9  0000              add [eax],al
00002FFB  0000              add [eax],al
00002FFD  0000              add [eax],al
00002FFF  0000              add [eax],al
00003001  0000              add [eax],al
00003003  0000              add [eax],al
00003005  0000              add [eax],al
00003007  0000              add [eax],al
00003009  0000              add [eax],al
0000300B  0000              add [eax],al
0000300D  0000              add [eax],al
0000300F  0000              add [eax],al
00003011  0000              add [eax],al
00003013  00                db 0x00
